    .file "nwnsyms.S"
	.align 2
.globl _ZN12CNWSCreatureD2Ev
	.type _ZN12CNWSCreatureD2Ev, @function
_ZN12CNWSCreatureD2Ev:
	pushl $0
	movl 8(%esp), %eax
	pushl %eax
	mov $0x08114e24, %eax
	call *%eax
	addl $8, %esp
	ret
	.align 2
.globl _ZN12CNWSCreatureD1Ev
	.type _ZN12CNWSCreatureD1Ev, @function
_ZN12CNWSCreatureD1Ev:
	pushl $0
	movl 8(%esp), %eax
	pushl %eax
	mov $0x08114e24, %eax
	call *%eax
	addl $8, %esp
	ret
	.align 2
.globl _ZN12CNWSCreatureC2Emii
	.type _ZN12CNWSCreatureC2Emii, @function
_ZN12CNWSCreatureC2Emii:
	mov $0x08113d80, %eax
	jmp *%eax
	.align 2
.globl _ZN12CNWSCreatureC1Emii
	.type _ZN12CNWSCreatureC1Emii, @function
_ZN12CNWSCreatureC1Emii:
	mov $0x08113d80, %eax
	jmp *%eax
	.align 2
.globl _ZN13CNWSPlaceableD2Ev
	.type _ZN13CNWSPlaceableD2Ev, @function
_ZN13CNWSPlaceableD2Ev:
	pushl $0
	movl 8(%esp), %eax
	pushl %eax
	mov $0x081dbe10, %eax
	call *%eax
	addl $8, %esp
	ret
	.align 2
.globl _ZN13CNWSPlaceableD1Ev
	.type _ZN13CNWSPlaceableD1Ev, @function
_ZN13CNWSPlaceableD1Ev:
	pushl $0
	movl 8(%esp), %eax
	pushl %eax
	mov $0x081dbe10, %eax
	call *%eax
	addl $8, %esp
	ret
	.align 2
.globl _ZN13CNWSPlaceableC2Em
	.type _ZN13CNWSPlaceableC2Em, @function
_ZN13CNWSPlaceableC2Em:
	mov $0x081db8f0, %eax
	jmp *%eax
	.align 2
.globl _ZN13CNWSPlaceableC1Em
	.type _ZN13CNWSPlaceableC1Em, @function
_ZN13CNWSPlaceableC1Em:
	mov $0x081db8f0, %eax
	jmp *%eax
	.align 2
.globl _ZN10CNWSObjectD2Ev
	.type _ZN10CNWSObjectD2Ev, @function
_ZN10CNWSObjectD2Ev:
	pushl $0
	movl 8(%esp), %eax
	pushl %eax
	mov $0x081c8e94, %eax
	call *%eax
	addl $8, %esp
	ret
	.align 2
.globl _ZN10CNWSObjectD1Ev
	.type _ZN10CNWSObjectD1Ev, @function
_ZN10CNWSObjectD1Ev:
	pushl $0
	movl 8(%esp), %eax
	pushl %eax
	mov $0x081c8e94, %eax
	call *%eax
	addl $8, %esp
	ret
	.align 2
.globl _ZN10CNWSObjectC2Ehmii
	.type _ZN10CNWSObjectC2Ehmii, @function
_ZN10CNWSObjectC2Ehmii:
	mov $0x081c88f0, %eax
	jmp *%eax
	.align 2
.globl _ZN10CNWSObjectC1Ehmii
	.type _ZN10CNWSObjectC1Ehmii, @function
_ZN10CNWSObjectC1Ehmii:
	mov $0x081c88f0, %eax
	jmp *%eax
	.align 2
.globl _ZN10CNWSModuleD2Ev
	.type _ZN10CNWSModuleD2Ev, @function
_ZN10CNWSModuleD2Ev:
	pushl $0
	movl 8(%esp), %eax
	pushl %eax
	mov $0x081b3718, %eax
	call *%eax
	addl $8, %esp
	ret
	.align 2
.globl _ZN10CNWSModuleD1Ev
	.type _ZN10CNWSModuleD1Ev, @function
_ZN10CNWSModuleD1Ev:
	pushl $0
	movl 8(%esp), %eax
	pushl %eax
	mov $0x081b3718, %eax
	call *%eax
	addl $8, %esp
	ret
	.align 2
.globl _ZN10CNWSModuleC2E10CExoStringii
	.type _ZN10CNWSModuleC2E10CExoStringii, @function
_ZN10CNWSModuleC2E10CExoStringii:
	mov $0x081b2dd0, %eax
	jmp *%eax
	.align 2
.globl _ZN10CNWSModuleC1E10CExoStringii
	.type _ZN10CNWSModuleC1E10CExoStringii, @function
_ZN10CNWSModuleC1E10CExoStringii:
	mov $0x081b2dd0, %eax
	jmp *%eax
	.align 2
.globl _ZN11CNWSTriggerD2Ev
	.type _ZN11CNWSTriggerD2Ev, @function
_ZN11CNWSTriggerD2Ev:
	pushl $0
	movl 8(%esp), %eax
	pushl %eax
	mov $0x081ee514, %eax
	call *%eax
	addl $8, %esp
	ret
	.align 2
.globl _ZN11CNWSTriggerD1Ev
	.type _ZN11CNWSTriggerD1Ev, @function
_ZN11CNWSTriggerD1Ev:
	pushl $0
	movl 8(%esp), %eax
	pushl %eax
	mov $0x081ee514, %eax
	call *%eax
	addl $8, %esp
	ret
	.align 2
.globl _ZN11CNWSTriggerC2Em
	.type _ZN11CNWSTriggerC2Em, @function
_ZN11CNWSTriggerC2Em:
	mov $0x081ee180, %eax
	jmp *%eax
	.align 2
.globl _ZN11CNWSTriggerC1Em
	.type _ZN11CNWSTriggerC1Em, @function
_ZN11CNWSTriggerC1Em:
	mov $0x081ee180, %eax
	jmp *%eax
	.align 2
.globl _ZN12CNWSWaypointD2Ev
	.type _ZN12CNWSWaypointD2Ev, @function
_ZN12CNWSWaypointD2Ev:
	pushl $0
	movl 8(%esp), %eax
	pushl %eax
	mov $0x081f46f8, %eax
	call *%eax
	addl $8, %esp
	ret
	.align 2
.globl _ZN12CNWSWaypointD1Ev
	.type _ZN12CNWSWaypointD1Ev, @function
_ZN12CNWSWaypointD1Ev:
	pushl $0
	movl 8(%esp), %eax
	pushl %eax
	mov $0x081f46f8, %eax
	call *%eax
	addl $8, %esp
	ret
	.align 2
.globl _ZN12CNWSWaypointC2Em
	.type _ZN12CNWSWaypointC2Em, @function
_ZN12CNWSWaypointC2Em:
	mov $0x081f4648, %eax
	jmp *%eax
	.align 2
.globl _ZN12CNWSWaypointC1Em
	.type _ZN12CNWSWaypointC1Em, @function
_ZN12CNWSWaypointC1Em:
	mov $0x081f4648, %eax
	jmp *%eax
	.align 2
.globl _ZN13CNWSEncounterD2Ev
	.type _ZN13CNWSEncounterD2Ev, @function
_ZN13CNWSEncounterD2Ev:
	pushl $0
	movl 8(%esp), %eax
	pushl %eax
	mov $0x0817fae4, %eax
	call *%eax
	addl $8, %esp
	ret
	.align 2
.globl _ZN13CNWSEncounterD1Ev
	.type _ZN13CNWSEncounterD1Ev, @function
_ZN13CNWSEncounterD1Ev:
	pushl $0
	movl 8(%esp), %eax
	pushl %eax
	mov $0x0817fae4, %eax
	call *%eax
	addl $8, %esp
	ret
	.align 2
.globl _ZN13CNWSEncounterC2Em
	.type _ZN13CNWSEncounterC2Em, @function
_ZN13CNWSEncounterC2Em:
	mov $0x0817f7a0, %eax
	jmp *%eax
	.align 2
.globl _ZN13CNWSEncounterC1Em
	.type _ZN13CNWSEncounterC1Em, @function
_ZN13CNWSEncounterC1Em:
	mov $0x0817f7a0, %eax
	jmp *%eax
	.align 2
.globl _ZN14CNWSPlayerTURDD2Ev
	.type _ZN14CNWSPlayerTURDD2Ev, @function
_ZN14CNWSPlayerTURDD2Ev:
	pushl $0
	movl 8(%esp), %eax
	pushl %eax
	mov $0x0805f734, %eax
	call *%eax
	addl $8, %esp
	ret
	.align 2
.globl _ZN14CNWSPlayerTURDD1Ev
	.type _ZN14CNWSPlayerTURDD1Ev, @function
_ZN14CNWSPlayerTURDD1Ev:
	pushl $0
	movl 8(%esp), %eax
	pushl %eax
	mov $0x0805f734, %eax
	call *%eax
	addl $8, %esp
	ret
	.align 2
.globl _ZN14CNWSPlayerTURDC2Em
	.type _ZN14CNWSPlayerTURDC2Em, @function
_ZN14CNWSPlayerTURDC2Em:
	mov $0x0805f628, %eax
	jmp *%eax
	.align 2
.globl _ZN14CNWSPlayerTURDC1Em
	.type _ZN14CNWSPlayerTURDC1Em, @function
_ZN14CNWSPlayerTURDC1Em:
	mov $0x0805f628, %eax
	jmp *%eax
	.align 2
.globl _ZN15CNWSSoundObjectD2Ev
	.type _ZN15CNWSSoundObjectD2Ev, @function
_ZN15CNWSSoundObjectD2Ev:
	pushl $0
	movl 8(%esp), %eax
	pushl %eax
	mov $0x081e9948, %eax
	call *%eax
	addl $8, %esp
	ret
	.align 2
.globl _ZN15CNWSSoundObjectD1Ev
	.type _ZN15CNWSSoundObjectD1Ev, @function
_ZN15CNWSSoundObjectD1Ev:
	pushl $0
	movl 8(%esp), %eax
	pushl %eax
	mov $0x081e9948, %eax
	call *%eax
	addl $8, %esp
	ret
	.align 2
.globl _ZN15CNWSSoundObjectC2Em
	.type _ZN15CNWSSoundObjectC2Em, @function
_ZN15CNWSSoundObjectC2Em:
	mov $0x081e88f4, %eax
	jmp *%eax
	.align 2
.globl _ZN15CNWSSoundObjectC1Em
	.type _ZN15CNWSSoundObjectC1Em, @function
_ZN15CNWSSoundObjectC1Em:
	mov $0x081e88f4, %eax
	jmp *%eax
	.align 2
.globl _ZN22CNWSAreaOfEffectObjectD2Ev
	.type _ZN22CNWSAreaOfEffectObjectD2Ev, @function
_ZN22CNWSAreaOfEffectObjectD2Ev:
	pushl $0
	movl 8(%esp), %eax
	pushl %eax
	mov $0x081ea0b0, %eax
	call *%eax
	addl $8, %esp
	ret
	.align 2
.globl _ZN22CNWSAreaOfEffectObjectD1Ev
	.type _ZN22CNWSAreaOfEffectObjectD1Ev, @function
_ZN22CNWSAreaOfEffectObjectD1Ev:
	pushl $0
	movl 8(%esp), %eax
	pushl %eax
	mov $0x081ea0b0, %eax
	call *%eax
	addl $8, %esp
	ret
	.align 2
.globl _ZN22CNWSAreaOfEffectObjectC2Em
	.type _ZN22CNWSAreaOfEffectObjectC2Em, @function
_ZN22CNWSAreaOfEffectObjectC2Em:
	mov $0x081e9ed0, %eax
	jmp *%eax
	.align 2
.globl _ZN22CNWSAreaOfEffectObjectC1Em
	.type _ZN22CNWSAreaOfEffectObjectC1Em, @function
_ZN22CNWSAreaOfEffectObjectC1Em:
	mov $0x081e9ed0, %eax
	jmp *%eax
	.align 2
.globl _ZN8CNWSAreaD2Ev
	.type _ZN8CNWSAreaD2Ev, @function
_ZN8CNWSAreaD2Ev:
	pushl $0
	movl 8(%esp), %eax
	pushl %eax
	mov $0x080cc244, %eax
	call *%eax
	addl $8, %esp
	ret
	.align 2
.globl _ZN8CNWSAreaD1Ev
	.type _ZN8CNWSAreaD1Ev, @function
_ZN8CNWSAreaD1Ev:
	pushl $0
	movl 8(%esp), %eax
	pushl %eax
	mov $0x080cc244, %eax
	call *%eax
	addl $8, %esp
	ret
	.align 2
.globl _ZN8CNWSAreaC2E7CResRefim
	.type _ZN8CNWSAreaC2E7CResRefim, @function
_ZN8CNWSAreaC2E7CResRefim:
	mov $0x080cbd30, %eax
	jmp *%eax
	.align 2
.globl _ZN8CNWSAreaC1E7CResRefim
	.type _ZN8CNWSAreaC1E7CResRefim, @function
_ZN8CNWSAreaC1E7CResRefim:
	mov $0x080cbd30, %eax
	jmp *%eax
	.align 2
.globl _ZN8CNWSDoorD2Ev
	.type _ZN8CNWSDoorD2Ev, @function
_ZN8CNWSDoorD2Ev:
	pushl $0
	movl 8(%esp), %eax
	pushl %eax
	mov $0x08166838, %eax
	call *%eax
	addl $8, %esp
	ret
	.align 2
.globl _ZN8CNWSDoorD1Ev
	.type _ZN8CNWSDoorD1Ev, @function
_ZN8CNWSDoorD1Ev:
	pushl $0
	movl 8(%esp), %eax
	pushl %eax
	mov $0x08166838, %eax
	call *%eax
	addl $8, %esp
	ret
	.align 2
.globl _ZN8CNWSDoorC2Em
	.type _ZN8CNWSDoorC2Em, @function
_ZN8CNWSDoorC2Em:
	mov $0x0816639c, %eax
	jmp *%eax
	.align 2
.globl _ZN8CNWSDoorC1Em
	.type _ZN8CNWSDoorC1Em, @function
_ZN8CNWSDoorC1Em:
	mov $0x0816639c, %eax
	jmp *%eax
	.align 2
.globl _ZN8CNWSItemD2Ev
	.type _ZN8CNWSItemD2Ev, @function
_ZN8CNWSItemD2Ev:
	pushl $0
	movl 8(%esp), %eax
	pushl %eax
	mov $0x0819f0c0, %eax
	call *%eax
	addl $8, %esp
	ret
	.align 2
.globl _ZN8CNWSItemD1Ev
	.type _ZN8CNWSItemD1Ev, @function
_ZN8CNWSItemD1Ev:
	pushl $0
	movl 8(%esp), %eax
	pushl %eax
	mov $0x0819f0c0, %eax
	call *%eax
	addl $8, %esp
	ret
	.align 2
.globl _ZN8CNWSItemC2Em
	.type _ZN8CNWSItemC2Em, @function
_ZN8CNWSItemC2Em:
	mov $0x0819eda0, %eax
	jmp *%eax
	.align 2
.globl _ZN8CNWSItemC1Em
	.type _ZN8CNWSItemC1Em, @function
_ZN8CNWSItemC1Em:
	mov $0x0819eda0, %eax
	jmp *%eax
	.align 2
.globl _ZN9CNWSStoreD2Ev
	.type _ZN9CNWSStoreD2Ev, @function
_ZN9CNWSStoreD2Ev:
	pushl $0
	movl 8(%esp), %eax
	pushl %eax
	mov $0x08083e88, %eax
	call *%eax
	addl $8, %esp
	ret
	.align 2
.globl _ZN9CNWSStoreD1Ev
	.type _ZN9CNWSStoreD1Ev, @function
_ZN9CNWSStoreD1Ev:
	pushl $0
	movl 8(%esp), %eax
	pushl %eax
	mov $0x08083e88, %eax
	call *%eax
	addl $8, %esp
	ret
	.align 2
.globl _ZN9CNWSStoreC2Em
	.type _ZN9CNWSStoreC2Em, @function
_ZN9CNWSStoreC2Em:
	mov $0x08083c0c, %eax
	jmp *%eax
	.align 2
.globl _ZN9CNWSStoreC1Em
	.type _ZN9CNWSStoreC1Em, @function
_ZN9CNWSStoreC1Em:
	mov $0x08083c0c, %eax
	jmp *%eax
	.align 2
.globl _ZN15CNWSCombatRoundD2Ev
	.type _ZN15CNWSCombatRoundD2Ev, @function
_ZN15CNWSCombatRoundD2Ev:
	pushl $0
	movl 8(%esp), %eax
	pushl %eax
	mov $0x080e10cc, %eax
	call *%eax
	addl $8, %esp
	ret
	.align 2
.globl _ZN15CNWSCombatRoundD1Ev
	.type _ZN15CNWSCombatRoundD1Ev, @function
_ZN15CNWSCombatRoundD1Ev:
	pushl $0
	movl 8(%esp), %eax
	pushl %eax
	mov $0x080e10cc, %eax
	call *%eax
	addl $8, %esp
	ret
	.align 2
.globl _ZN15CNWSCombatRoundC2EP12CNWSCreature
	.type _ZN15CNWSCombatRoundC2EP12CNWSCreature, @function
_ZN15CNWSCombatRoundC2EP12CNWSCreature:
	mov $0x080e0db4, %eax
	jmp *%eax
	.align 2
.globl _ZN15CNWSCombatRoundC1EP12CNWSCreature
	.type _ZN15CNWSCombatRoundC1EP12CNWSCreature, @function
_ZN15CNWSCombatRoundC1EP12CNWSCreature:
	mov $0x080e0db4, %eax
	jmp *%eax
	.align 2
.globl _ZN11CNWSMessageD2Ev
	.type _ZN11CNWSMessageD2Ev, @function
_ZN11CNWSMessageD2Ev:
	pushl $0
	movl 8(%esp), %eax
	pushl %eax
	mov $0x0819ba7c, %eax
	call *%eax
	addl $8, %esp
	ret
	.align 2
.globl _ZN11CNWSMessageD1Ev
	.type _ZN11CNWSMessageD1Ev, @function
_ZN11CNWSMessageD1Ev:
	pushl $0
	movl 8(%esp), %eax
	pushl %eax
	mov $0x0819ba7c, %eax
	call *%eax
	addl $8, %esp
	ret
	.align 2
.globl _ZN11CNWSMessageC2Ev
	.type _ZN11CNWSMessageC2Ev, @function
_ZN11CNWSMessageC2Ev:
	mov $0x0819ba5c, %eax
	jmp *%eax
	.align 2
.globl _ZN11CNWSMessageC1Ev
	.type _ZN11CNWSMessageC1Ev, @function
_ZN11CNWSMessageC1Ev:
	mov $0x0819ba5c, %eax
	jmp *%eax
	.align 2
.globl _ZN22CExoLinkedListInternalD2Ev
	.type _ZN22CExoLinkedListInternalD2Ev, @function
_ZN22CExoLinkedListInternalD2Ev:
	pushl $0
	movl 8(%esp), %eax
	pushl %eax
	mov $0x082c98ac, %eax
	call *%eax
	addl $8, %esp
	ret
	.align 2
.globl _ZN22CExoLinkedListInternalD1Ev
	.type _ZN22CExoLinkedListInternalD1Ev, @function
_ZN22CExoLinkedListInternalD1Ev:
	pushl $0
	movl 8(%esp), %eax
	pushl %eax
	mov $0x082c98ac, %eax
	call *%eax
	addl $8, %esp
	ret
	.align 2
.globl _ZN14CExoLinkedListI18CServerAIEventNodeED2Ev
	.type _ZN14CExoLinkedListI18CServerAIEventNodeED2Ev, @function
_ZN14CExoLinkedListI18CServerAIEventNodeED2Ev:
	pushl $0
	movl 8(%esp), %eax
	pushl %eax
	mov $0x08098720, %eax
	call *%eax
	addl $8, %esp
	ret
	.align 2
.globl _ZN14CExoLinkedListI18CServerAIEventNodeED1Ev
	.type _ZN14CExoLinkedListI18CServerAIEventNodeED1Ev, @function
_ZN14CExoLinkedListI18CServerAIEventNodeED1Ev:
	pushl $0
	movl 8(%esp), %eax
	pushl %eax
	mov $0x08098720, %eax
	call *%eax
	addl $8, %esp
	ret
	.align 2
.globl _ZN14CExoLinkedListI18CServerAIEventNodeEC2Ev
	.type _ZN14CExoLinkedListI18CServerAIEventNodeEC2Ev, @function
_ZN14CExoLinkedListI18CServerAIEventNodeEC2Ev:
	mov $0x080986f0, %eax
	jmp *%eax
	.align 2
.globl _ZN14CExoLinkedListI18CServerAIEventNodeEC1Ev
	.type _ZN14CExoLinkedListI18CServerAIEventNodeEC1Ev, @function
_ZN14CExoLinkedListI18CServerAIEventNodeEC1Ev:
	mov $0x080986f0, %eax
	jmp *%eax
	.align 2
.globl _ZN14CExoLinkedListI20CNWSObjectActionNodeED2Ev
	.type _ZN14CExoLinkedListI20CNWSObjectActionNodeED2Ev, @function
_ZN14CExoLinkedListI20CNWSObjectActionNodeED2Ev:
	pushl $0
	movl 8(%esp), %eax
	pushl %eax
	mov $0x081d63a8, %eax
	call *%eax
	addl $8, %esp
	ret
	.align 2
.globl _ZN14CExoLinkedListI20CNWSObjectActionNodeED1Ev
	.type _ZN14CExoLinkedListI20CNWSObjectActionNodeED1Ev, @function
_ZN14CExoLinkedListI20CNWSObjectActionNodeED1Ev:
	pushl $0
	movl 8(%esp), %eax
	pushl %eax
	mov $0x081d63a8, %eax
	call *%eax
	addl $8, %esp
	ret
	.align 2
.globl _ZN14CExoLinkedListI20CNWSObjectActionNodeEC2Ev
	.type _ZN14CExoLinkedListI20CNWSObjectActionNodeEC2Ev, @function
_ZN14CExoLinkedListI20CNWSObjectActionNodeEC2Ev:
	mov $0x081d6378, %eax
	jmp *%eax
	.align 2
.globl _ZN14CExoLinkedListI20CNWSObjectActionNodeEC1Ev
	.type _ZN14CExoLinkedListI20CNWSObjectActionNodeEC1Ev, @function
_ZN14CExoLinkedListI20CNWSObjectActionNodeEC1Ev:
	mov $0x081d6378, %eax
	jmp *%eax
	.align 2
.globl _ZN14CExoLinkedListI21CNWSCombatRoundActionED2Ev
	.type _ZN14CExoLinkedListI21CNWSCombatRoundActionED2Ev, @function
_ZN14CExoLinkedListI21CNWSCombatRoundActionED2Ev:
	pushl $0
	movl 8(%esp), %eax
	pushl %eax
	mov $0x080e5740, %eax
	call *%eax
	addl $8, %esp
	ret
	.align 2
.globl _ZN14CExoLinkedListI21CNWSCombatRoundActionED1Ev
	.type _ZN14CExoLinkedListI21CNWSCombatRoundActionED1Ev, @function
_ZN14CExoLinkedListI21CNWSCombatRoundActionED1Ev:
	pushl $0
	movl 8(%esp), %eax
	pushl %eax
	mov $0x080e5740, %eax
	call *%eax
	addl $8, %esp
	ret
	.align 2
.globl _ZN14CExoLinkedListI21CNWSCombatRoundActionEC2Ev
	.type _ZN14CExoLinkedListI21CNWSCombatRoundActionEC2Ev, @function
_ZN14CExoLinkedListI21CNWSCombatRoundActionEC2Ev:
	mov $0x080e56e8, %eax
	jmp *%eax
	.align 2
.globl _ZN14CExoLinkedListI21CNWSCombatRoundActionEC1Ev
	.type _ZN14CExoLinkedListI21CNWSCombatRoundActionEC1Ev, @function
_ZN14CExoLinkedListI21CNWSCombatRoundActionEC1Ev:
	mov $0x080e56e8, %eax
	jmp *%eax
	.align 2
.globl _ZN14CExoLinkedListI10CNWSClientED2Ev
	.type _ZN14CExoLinkedListI10CNWSClientED2Ev, @function
_ZN14CExoLinkedListI10CNWSClientED2Ev:
	pushl $0
	movl 8(%esp), %eax
	pushl %eax
	mov $0x080b14b8, %eax
	call *%eax
	addl $8, %esp
	ret
	.align 2
.globl _ZN14CExoLinkedListI10CNWSClientED1Ev
	.type _ZN14CExoLinkedListI10CNWSClientED1Ev, @function
_ZN14CExoLinkedListI10CNWSClientED1Ev:
	pushl $0
	movl 8(%esp), %eax
	pushl %eax
	mov $0x080b14b8, %eax
	call *%eax
	addl $8, %esp
	ret
	.align 2
.globl _ZN14CExoLinkedListI10CNWSClientEC2Ev
	.type _ZN14CExoLinkedListI10CNWSClientEC2Ev, @function
_ZN14CExoLinkedListI10CNWSClientEC2Ev:
	mov $0x080b1430, %eax
	jmp *%eax
	.align 2
.globl _ZN14CExoLinkedListI10CNWSClientEC1Ev
	.type _ZN14CExoLinkedListI10CNWSClientEC1Ev, @function
_ZN14CExoLinkedListI10CNWSClientEC1Ev:
	mov $0x080b1430, %eax
	jmp *%eax
	.align 2
.globl _ZN14CExoLinkedListI12CExoKeyTableED2Ev
	.type _ZN14CExoLinkedListI12CExoKeyTableED2Ev, @function
_ZN14CExoLinkedListI12CExoKeyTableED2Ev:
	pushl $0
	movl 8(%esp), %eax
	pushl %eax
	mov $0x082b4048, %eax
	call *%eax
	addl $8, %esp
	ret
	.align 2
.globl _ZN14CExoLinkedListI12CExoKeyTableED1Ev
	.type _ZN14CExoLinkedListI12CExoKeyTableED1Ev, @function
_ZN14CExoLinkedListI12CExoKeyTableED1Ev:
	pushl $0
	movl 8(%esp), %eax
	pushl %eax
	mov $0x082b4048, %eax
	call *%eax
	addl $8, %esp
	ret
	.align 2
.globl _ZN14CExoLinkedListI12CExoKeyTableEC2Ev
	.type _ZN14CExoLinkedListI12CExoKeyTableEC2Ev, @function
_ZN14CExoLinkedListI12CExoKeyTableEC2Ev:
	mov $0x082b4018, %eax
	jmp *%eax
	.align 2
.globl _ZN14CExoLinkedListI12CExoKeyTableEC1Ev
	.type _ZN14CExoLinkedListI12CExoKeyTableEC1Ev, @function
_ZN14CExoLinkedListI12CExoKeyTableEC1Ev:
	mov $0x082b4018, %eax
	jmp *%eax
	.align 2
.globl _ZN14CExoLinkedListI13CLinuxFileKeyED2Ev
	.type _ZN14CExoLinkedListI13CLinuxFileKeyED2Ev, @function
_ZN14CExoLinkedListI13CLinuxFileKeyED2Ev:
	pushl $0
	movl 8(%esp), %eax
	pushl %eax
	mov $0x082d31cc, %eax
	call *%eax
	addl $8, %esp
	ret
	.align 2
.globl _ZN14CExoLinkedListI13CLinuxFileKeyED1Ev
	.type _ZN14CExoLinkedListI13CLinuxFileKeyED1Ev, @function
_ZN14CExoLinkedListI13CLinuxFileKeyED1Ev:
	pushl $0
	movl 8(%esp), %eax
	pushl %eax
	mov $0x082d31cc, %eax
	call *%eax
	addl $8, %esp
	ret
	.align 2
.globl _ZN14CExoLinkedListI13CLinuxFileKeyEC2Ev
	.type _ZN14CExoLinkedListI13CLinuxFileKeyEC2Ev, @function
_ZN14CExoLinkedListI13CLinuxFileKeyEC2Ev:
	mov $0x082d319c, %eax
	jmp *%eax
	.align 2
.globl _ZN14CExoLinkedListI13CLinuxFileKeyEC1Ev
	.type _ZN14CExoLinkedListI13CLinuxFileKeyEC1Ev, @function
_ZN14CExoLinkedListI13CLinuxFileKeyEC1Ev:
	mov $0x082d319c, %eax
	jmp *%eax
	.align 2
.globl _ZN14CExoLinkedListI14CNWSPlayerTURDED2Ev
	.type _ZN14CExoLinkedListI14CNWSPlayerTURDED2Ev, @function
_ZN14CExoLinkedListI14CNWSPlayerTURDED2Ev:
	pushl $0
	movl 8(%esp), %eax
	pushl %eax
	mov $0x081c1a90, %eax
	call *%eax
	addl $8, %esp
	ret
	.align 2
.globl _ZN14CExoLinkedListI14CNWSPlayerTURDED1Ev
	.type _ZN14CExoLinkedListI14CNWSPlayerTURDED1Ev, @function
_ZN14CExoLinkedListI14CNWSPlayerTURDED1Ev:
	pushl $0
	movl 8(%esp), %eax
	pushl %eax
	mov $0x081c1a90, %eax
	call *%eax
	addl $8, %esp
	ret
	.align 2
.globl _ZN14CExoLinkedListI14CNWSPlayerTURDEC2Ev
	.type _ZN14CExoLinkedListI14CNWSPlayerTURDEC2Ev, @function
_ZN14CExoLinkedListI14CNWSPlayerTURDEC2Ev:
	mov $0x081c1a60, %eax
	jmp *%eax
	.align 2
.globl _ZN14CExoLinkedListI14CNWSPlayerTURDEC1Ev
	.type _ZN14CExoLinkedListI14CNWSPlayerTURDEC1Ev, @function
_ZN14CExoLinkedListI14CNWSPlayerTURDEC1Ev:
	mov $0x081c1a60, %eax
	jmp *%eax
	.align 2
.globl _ZN14CExoLinkedListI17CLastUpdateObjectED2Ev
	.type _ZN14CExoLinkedListI17CLastUpdateObjectED2Ev, @function
_ZN14CExoLinkedListI17CLastUpdateObjectED2Ev:
	pushl $0
	movl 8(%esp), %eax
	pushl %eax
	mov $0x0805f1d0, %eax
	call *%eax
	addl $8, %esp
	ret
	.align 2
.globl _ZN14CExoLinkedListI17CLastUpdateObjectED1Ev
	.type _ZN14CExoLinkedListI17CLastUpdateObjectED1Ev, @function
_ZN14CExoLinkedListI17CLastUpdateObjectED1Ev:
	pushl $0
	movl 8(%esp), %eax
	pushl %eax
	mov $0x0805f1d0, %eax
	call *%eax
	addl $8, %esp
	ret
	.align 2
.globl _ZN14CExoLinkedListI17CLastUpdateObjectEC2Ev
	.type _ZN14CExoLinkedListI17CLastUpdateObjectEC2Ev, @function
_ZN14CExoLinkedListI17CLastUpdateObjectEC2Ev:
	mov $0x0805f10c, %eax
	jmp *%eax
	.align 2
.globl _ZN14CExoLinkedListI17CLastUpdateObjectEC1Ev
	.type _ZN14CExoLinkedListI17CLastUpdateObjectEC1Ev, @function
_ZN14CExoLinkedListI17CLastUpdateObjectEC1Ev:
	mov $0x0805f10c, %eax
	jmp *%eax
	.align 2
.globl _ZN14CExoLinkedListI22CLastUpdatePartyObjectED2Ev
	.type _ZN14CExoLinkedListI22CLastUpdatePartyObjectED2Ev, @function
_ZN14CExoLinkedListI22CLastUpdatePartyObjectED2Ev:
	pushl $0
	movl 8(%esp), %eax
	pushl %eax
	mov $0x0805f16c, %eax
	call *%eax
	addl $8, %esp
	ret
	.align 2
.globl _ZN14CExoLinkedListI22CLastUpdatePartyObjectED1Ev
	.type _ZN14CExoLinkedListI22CLastUpdatePartyObjectED1Ev, @function
_ZN14CExoLinkedListI22CLastUpdatePartyObjectED1Ev:
	pushl $0
	movl 8(%esp), %eax
	pushl %eax
	mov $0x0805f16c, %eax
	call *%eax
	addl $8, %esp
	ret
	.align 2
.globl _ZN14CExoLinkedListI22CLastUpdatePartyObjectEC2Ev
	.type _ZN14CExoLinkedListI22CLastUpdatePartyObjectEC2Ev, @function
_ZN14CExoLinkedListI22CLastUpdatePartyObjectEC2Ev:
	mov $0x0805f13c, %eax
	jmp *%eax
	.align 2
.globl _ZN14CExoLinkedListI22CLastUpdatePartyObjectEC1Ev
	.type _ZN14CExoLinkedListI22CLastUpdatePartyObjectEC1Ev, @function
_ZN14CExoLinkedListI22CLastUpdatePartyObjectEC1Ev:
	mov $0x0805f13c, %eax
	jmp *%eax
	.align 2
.globl _ZN14CExoLinkedListI26CNWSPlayerLUOInventoryItemED2Ev
	.type _ZN14CExoLinkedListI26CNWSPlayerLUOInventoryItemED2Ev, @function
_ZN14CExoLinkedListI26CNWSPlayerLUOInventoryItemED2Ev:
	pushl $0
	movl 8(%esp), %eax
	pushl %eax
	mov $0x081e48e8, %eax
	call *%eax
	addl $8, %esp
	ret
	.align 2
.globl _ZN14CExoLinkedListI26CNWSPlayerLUOInventoryItemED1Ev
	.type _ZN14CExoLinkedListI26CNWSPlayerLUOInventoryItemED1Ev, @function
_ZN14CExoLinkedListI26CNWSPlayerLUOInventoryItemED1Ev:
	pushl $0
	movl 8(%esp), %eax
	pushl %eax
	mov $0x081e48e8, %eax
	call *%eax
	addl $8, %esp
	ret
	.align 2
.globl _ZN14CExoLinkedListI26CNWSPlayerLUOInventoryItemEC2Ev
	.type _ZN14CExoLinkedListI26CNWSPlayerLUOInventoryItemEC2Ev, @function
_ZN14CExoLinkedListI26CNWSPlayerLUOInventoryItemEC2Ev:
	mov $0x081e48b8, %eax
	jmp *%eax
	.align 2
.globl _ZN14CExoLinkedListI26CNWSPlayerLUOInventoryItemEC1Ev
	.type _ZN14CExoLinkedListI26CNWSPlayerLUOInventoryItemEC1Ev, @function
_ZN14CExoLinkedListI26CNWSPlayerLUOInventoryItemEC1Ev:
	mov $0x081e48b8, %eax
	jmp *%eax
	.align 2
.globl _ZN14CExoLinkedListI4C2DAEC2Ev
	.type _ZN14CExoLinkedListI4C2DAEC2Ev, @function
_ZN14CExoLinkedListI4C2DAEC2Ev:
	mov $0x080b9ae8, %eax
	jmp *%eax
	.align 2
.globl _ZN14CExoLinkedListI4C2DAEC1Ev
	.type _ZN14CExoLinkedListI4C2DAEC1Ev, @function
_ZN14CExoLinkedListI4C2DAEC1Ev:
	mov $0x080b9ae8, %eax
	jmp *%eax
	.align 2
.globl _ZN14CExoLinkedListI4CResED2Ev
	.type _ZN14CExoLinkedListI4CResED2Ev, @function
_ZN14CExoLinkedListI4CResED2Ev:
	pushl $0
	movl 8(%esp), %eax
	pushl %eax
	mov $0x082b40b4, %eax
	call *%eax
	addl $8, %esp
	ret
	.align 2
.globl _ZN14CExoLinkedListI4CResED1Ev
	.type _ZN14CExoLinkedListI4CResED1Ev, @function
_ZN14CExoLinkedListI4CResED1Ev:
	pushl $0
	movl 8(%esp), %eax
	pushl %eax
	mov $0x082b40b4, %eax
	call *%eax
	addl $8, %esp
	ret
	.align 2
.globl _ZN14CExoLinkedListI4CResEC2Ev
	.type _ZN14CExoLinkedListI4CResEC2Ev, @function
_ZN14CExoLinkedListI4CResEC2Ev:
	mov $0x082b4084, %eax
	jmp *%eax
	.align 2
.globl _ZN14CExoLinkedListI4CResEC1Ev
	.type _ZN14CExoLinkedListI4CResEC1Ev, @function
_ZN14CExoLinkedListI4CResEC1Ev:
	mov $0x082b4084, %eax
	jmp *%eax
	.align 2
.globl _ZN14CExoLinkedListImED2Ev
	.type _ZN14CExoLinkedListImED2Ev, @function
_ZN14CExoLinkedListImED2Ev:
	pushl $0
	movl 8(%esp), %eax
	pushl %eax
	mov $0x080b14f4, %eax
	call *%eax
	addl $8, %esp
	ret
	.align 2
.globl _ZN14CExoLinkedListImED1Ev
	.type _ZN14CExoLinkedListImED1Ev, @function
_ZN14CExoLinkedListImED1Ev:
	pushl $0
	movl 8(%esp), %eax
	pushl %eax
	mov $0x080b14f4, %eax
	call *%eax
	addl $8, %esp
	ret
	.align 2
.globl _ZN14CExoLinkedListImEC2Ev
	.type _ZN14CExoLinkedListImEC2Ev, @function
_ZN14CExoLinkedListImEC2Ev:
	mov $0x080b1460, %eax
	jmp *%eax
	.align 2
.globl _ZN14CExoLinkedListImEC1Ev
	.type _ZN14CExoLinkedListImEC1Ev, @function
_ZN14CExoLinkedListImEC1Ev:
	mov $0x080b1460, %eax
	jmp *%eax
	.align 2
.globl _ZN14CExoLinkedListI10CERFStringED2Ev
	.type _ZN14CExoLinkedListI10CERFStringED2Ev, @function
_ZN14CExoLinkedListI10CERFStringED2Ev:
	pushl $0
	movl 8(%esp), %eax
	pushl %eax
	mov $0x082b80b4, %eax
	call *%eax
	addl $8, %esp
	ret
	.align 2
.globl _ZN14CExoLinkedListI10CERFStringED1Ev
	.type _ZN14CExoLinkedListI10CERFStringED1Ev, @function
_ZN14CExoLinkedListI10CERFStringED1Ev:
	pushl $0
	movl 8(%esp), %eax
	pushl %eax
	mov $0x082b80b4, %eax
	call *%eax
	addl $8, %esp
	ret
	.align 2
.globl _ZN14CExoLinkedListI10CERFStringEC2Ev
	.type _ZN14CExoLinkedListI10CERFStringEC2Ev, @function
_ZN14CExoLinkedListI10CERFStringEC2Ev:
	mov $0x082b8084, %eax
	jmp *%eax
	.align 2
.globl _ZN14CExoLinkedListI10CERFStringEC1Ev
	.type _ZN14CExoLinkedListI10CERFStringEC1Ev, @function
_ZN14CExoLinkedListI10CERFStringEC1Ev:
	mov $0x082b8084, %eax
	jmp *%eax
	.align 2
.globl _ZN14CExoLinkedListI10CExoStringED2Ev
	.type _ZN14CExoLinkedListI10CExoStringED2Ev, @function
_ZN14CExoLinkedListI10CExoStringED2Ev:
	pushl $0
	movl 8(%esp), %eax
	pushl %eax
	mov $0x081f5c4c, %eax
	call *%eax
	addl $8, %esp
	ret
	.align 2
.globl _ZN14CExoLinkedListI10CExoStringED1Ev
	.type _ZN14CExoLinkedListI10CExoStringED1Ev, @function
_ZN14CExoLinkedListI10CExoStringED1Ev:
	pushl $0
	movl 8(%esp), %eax
	pushl %eax
	mov $0x081f5c4c, %eax
	call *%eax
	addl $8, %esp
	ret
	.align 2
.globl _ZN14CExoLinkedListI10CExoStringEC2Ev
	.type _ZN14CExoLinkedListI10CExoStringEC2Ev, @function
_ZN14CExoLinkedListI10CExoStringEC2Ev:
	mov $0x081f5c1c, %eax
	jmp *%eax
	.align 2
.globl _ZN14CExoLinkedListI10CExoStringEC1Ev
	.type _ZN14CExoLinkedListI10CExoStringEC1Ev, @function
_ZN14CExoLinkedListI10CExoStringEC1Ev:
	mov $0x081f5c1c, %eax
	jmp *%eax
	.align 2
.globl _ZN14CExoLinkedListI13CKeyTableInfoED2Ev
	.type _ZN14CExoLinkedListI13CKeyTableInfoED2Ev, @function
_ZN14CExoLinkedListI13CKeyTableInfoED2Ev:
	pushl $0
	movl 8(%esp), %eax
	pushl %eax
	mov $0x082c51b0, %eax
	call *%eax
	addl $8, %esp
	ret
	.align 2
.globl _ZN14CExoLinkedListI13CKeyTableInfoED1Ev
	.type _ZN14CExoLinkedListI13CKeyTableInfoED1Ev, @function
_ZN14CExoLinkedListI13CKeyTableInfoED1Ev:
	pushl $0
	movl 8(%esp), %eax
	pushl %eax
	mov $0x082c51b0, %eax
	call *%eax
	addl $8, %esp
	ret
	.align 2
.globl _ZN14CExoLinkedListI13CKeyTableInfoEC2Ev
	.type _ZN14CExoLinkedListI13CKeyTableInfoEC2Ev, @function
_ZN14CExoLinkedListI13CKeyTableInfoEC2Ev:
	mov $0x082c5180, %eax
	jmp *%eax
	.align 2
.globl _ZN14CExoLinkedListI13CKeyTableInfoEC1Ev
	.type _ZN14CExoLinkedListI13CKeyTableInfoEC1Ev, @function
_ZN14CExoLinkedListI13CKeyTableInfoEC1Ev:
	mov $0x082c5180, %eax
	jmp *%eax
	.align 2
.globl _ZN14CExoLinkedListI15ExoLocString_stED2Ev
	.type _ZN14CExoLinkedListI15ExoLocString_stED2Ev, @function
_ZN14CExoLinkedListI15ExoLocString_stED2Ev:
	pushl $0
	movl 8(%esp), %eax
	pushl %eax
	mov $0x082d129c, %eax
	call *%eax
	addl $8, %esp
	ret
	.align 2
.globl _ZN14CExoLinkedListI15ExoLocString_stED1Ev
	.type _ZN14CExoLinkedListI15ExoLocString_stED1Ev, @function
_ZN14CExoLinkedListI15ExoLocString_stED1Ev:
	pushl $0
	movl 8(%esp), %eax
	pushl %eax
	mov $0x082d129c, %eax
	call *%eax
	addl $8, %esp
	ret
	.align 2
.globl _ZN14CExoLinkedListI15ExoLocString_stEC2Ev
	.type _ZN14CExoLinkedListI15ExoLocString_stEC2Ev, @function
_ZN14CExoLinkedListI15ExoLocString_stEC2Ev:
	mov $0x082d126c, %eax
	jmp *%eax
	.align 2
.globl _ZN14CExoLinkedListI15ExoLocString_stEC1Ev
	.type _ZN14CExoLinkedListI15ExoLocString_stEC1Ev, @function
_ZN14CExoLinkedListI15ExoLocString_stEC1Ev:
	mov $0x082d126c, %eax
	jmp *%eax
	.align 2
.globl _ZN14CExoLinkedListI16CNWSDialogPlayerED2Ev
	.type _ZN14CExoLinkedListI16CNWSDialogPlayerED2Ev, @function
_ZN14CExoLinkedListI16CNWSDialogPlayerED2Ev:
	pushl $0
	movl 8(%esp), %eax
	pushl %eax
	mov $0x081d6328, %eax
	call *%eax
	addl $8, %esp
	ret
	.align 2
.globl _ZN14CExoLinkedListI16CNWSDialogPlayerED1Ev
	.type _ZN14CExoLinkedListI16CNWSDialogPlayerED1Ev, @function
_ZN14CExoLinkedListI16CNWSDialogPlayerED1Ev:
	pushl $0
	movl 8(%esp), %eax
	pushl %eax
	mov $0x081d6328, %eax
	call *%eax
	addl $8, %esp
	ret
	.align 2
.globl _ZN14CExoLinkedListI16CNWSDialogPlayerEC2Ev
	.type _ZN14CExoLinkedListI16CNWSDialogPlayerEC2Ev, @function
_ZN14CExoLinkedListI16CNWSDialogPlayerEC2Ev:
	mov $0x0823e6a4, %eax
	jmp *%eax
	.align 2
.globl _ZN14CExoLinkedListI16CNWSDialogPlayerEC1Ev
	.type _ZN14CExoLinkedListI16CNWSDialogPlayerEC1Ev, @function
_ZN14CExoLinkedListI16CNWSDialogPlayerEC1Ev:
	mov $0x0823e6a4, %eax
	jmp *%eax
	.align 2
.globl _ZN14CExoLinkedListI17CLinuxFileSectionED2Ev
	.type _ZN14CExoLinkedListI17CLinuxFileSectionED2Ev, @function
_ZN14CExoLinkedListI17CLinuxFileSectionED2Ev:
	pushl $0
	movl 8(%esp), %eax
	pushl %eax
	mov $0x082d335c, %eax
	call *%eax
	addl $8, %esp
	ret
	.align 2
.globl _ZN14CExoLinkedListI17CLinuxFileSectionED1Ev
	.type _ZN14CExoLinkedListI17CLinuxFileSectionED1Ev, @function
_ZN14CExoLinkedListI17CLinuxFileSectionED1Ev:
	pushl $0
	movl 8(%esp), %eax
	pushl %eax
	mov $0x082d335c, %eax
	call *%eax
	addl $8, %esp
	ret
	.align 2
.globl _ZN14CExoLinkedListI17CLinuxFileSectionEC2Ev
	.type _ZN14CExoLinkedListI17CLinuxFileSectionEC2Ev, @function
_ZN14CExoLinkedListI17CLinuxFileSectionEC2Ev:
	mov $0x082d332c, %eax
	jmp *%eax
	.align 2
.globl _ZN14CExoLinkedListI17CLinuxFileSectionEC1Ev
	.type _ZN14CExoLinkedListI17CLinuxFileSectionEC1Ev, @function
_ZN14CExoLinkedListI17CLinuxFileSectionEC1Ev:
	mov $0x082d332c, %eax
	jmp *%eax
	.align 2
.globl _ZN14CExoLinkedListI18NWAreaExpansion_stED2Ev
	.type _ZN14CExoLinkedListI18NWAreaExpansion_stED2Ev, @function
_ZN14CExoLinkedListI18NWAreaExpansion_stED2Ev:
	pushl $0
	movl 8(%esp), %eax
	pushl %eax
	mov $0x080d5b88, %eax
	call *%eax
	addl $8, %esp
	ret
	.align 2
.globl _ZN14CExoLinkedListI18NWAreaExpansion_stED1Ev
	.type _ZN14CExoLinkedListI18NWAreaExpansion_stED1Ev, @function
_ZN14CExoLinkedListI18NWAreaExpansion_stED1Ev:
	pushl $0
	movl 8(%esp), %eax
	pushl %eax
	mov $0x080d5b88, %eax
	call *%eax
	addl $8, %esp
	ret
	.align 2
.globl _ZN14CExoLinkedListI18NWAreaExpansion_stEC2Ev
	.type _ZN14CExoLinkedListI18NWAreaExpansion_stEC2Ev, @function
_ZN14CExoLinkedListI18NWAreaExpansion_stEC2Ev:
	mov $0x080d5b58, %eax
	jmp *%eax
	.align 2
.globl _ZN14CExoLinkedListI18NWAreaExpansion_stEC1Ev
	.type _ZN14CExoLinkedListI18NWAreaExpansion_stEC1Ev, @function
_ZN14CExoLinkedListI18NWAreaExpansion_stEC1Ev:
	mov $0x080d5b58, %eax
	jmp *%eax
	.align 2
.globl _ZN14CExoLinkedListI19NWModuleCutScene_stED2Ev
	.type _ZN14CExoLinkedListI19NWModuleCutScene_stED2Ev, @function
_ZN14CExoLinkedListI19NWModuleCutScene_stED2Ev:
	pushl $0
	movl 8(%esp), %eax
	pushl %eax
	mov $0x081c194c, %eax
	call *%eax
	addl $8, %esp
	ret
	.align 2
.globl _ZN14CExoLinkedListI19NWModuleCutScene_stED1Ev
	.type _ZN14CExoLinkedListI19NWModuleCutScene_stED1Ev, @function
_ZN14CExoLinkedListI19NWModuleCutScene_stED1Ev:
	pushl $0
	movl 8(%esp), %eax
	pushl %eax
	mov $0x081c194c, %eax
	call *%eax
	addl $8, %esp
	ret
	.align 2
.globl _ZN14CExoLinkedListI19NWModuleCutScene_stEC2Ev
	.type _ZN14CExoLinkedListI19NWModuleCutScene_stEC2Ev, @function
_ZN14CExoLinkedListI19NWModuleCutScene_stEC2Ev:
	mov $0x081c191c, %eax
	jmp *%eax
	.align 2
.globl _ZN14CExoLinkedListI19NWModuleCutScene_stEC1Ev
	.type _ZN14CExoLinkedListI19NWModuleCutScene_stEC1Ev, @function
_ZN14CExoLinkedListI19NWModuleCutScene_stEC1Ev:
	mov $0x081c191c, %eax
	jmp *%eax
	.align 2
.globl _ZN14CExoLinkedListI19NWPlayerListItem_stED2Ev
	.type _ZN14CExoLinkedListI19NWPlayerListItem_stED2Ev, @function
_ZN14CExoLinkedListI19NWPlayerListItem_stED2Ev:
	pushl $0
	movl 8(%esp), %eax
	pushl %eax
	mov $0x081c1a24, %eax
	call *%eax
	addl $8, %esp
	ret
	.align 2
.globl _ZN14CExoLinkedListI19NWPlayerListItem_stED1Ev
	.type _ZN14CExoLinkedListI19NWPlayerListItem_stED1Ev, @function
_ZN14CExoLinkedListI19NWPlayerListItem_stED1Ev:
	pushl $0
	movl 8(%esp), %eax
	pushl %eax
	mov $0x081c1a24, %eax
	call *%eax
	addl $8, %esp
	ret
	.align 2
.globl _ZN14CExoLinkedListI19NWPlayerListItem_stEC2Ev
	.type _ZN14CExoLinkedListI19NWPlayerListItem_stEC2Ev, @function
_ZN14CExoLinkedListI19NWPlayerListItem_stEC2Ev:
	mov $0x081c19f4, %eax
	jmp *%eax
	.align 2
.globl _ZN14CExoLinkedListI19NWPlayerListItem_stEC1Ev
	.type _ZN14CExoLinkedListI19NWPlayerListItem_stEC1Ev, @function
_ZN14CExoLinkedListI19NWPlayerListItem_stEC1Ev:
	mov $0x081c19f4, %eax
	jmp *%eax
	.align 2
.globl _ZN14CExoLinkedListI20NWModuleExpansion_stED2Ev
	.type _ZN14CExoLinkedListI20NWModuleExpansion_stED2Ev, @function
_ZN14CExoLinkedListI20NWModuleExpansion_stED2Ev:
	pushl $0
	movl 8(%esp), %eax
	pushl %eax
	mov $0x081c18e0, %eax
	call *%eax
	addl $8, %esp
	ret
	.align 2
.globl _ZN14CExoLinkedListI20NWModuleExpansion_stED1Ev
	.type _ZN14CExoLinkedListI20NWModuleExpansion_stED1Ev, @function
_ZN14CExoLinkedListI20NWModuleExpansion_stED1Ev:
	pushl $0
	movl 8(%esp), %eax
	pushl %eax
	mov $0x081c18e0, %eax
	call *%eax
	addl $8, %esp
	ret
	.align 2
.globl _ZN14CExoLinkedListI20NWModuleExpansion_stEC2Ev
	.type _ZN14CExoLinkedListI20NWModuleExpansion_stEC2Ev, @function
_ZN14CExoLinkedListI20NWModuleExpansion_stEC2Ev:
	mov $0x081c18b0, %eax
	jmp *%eax
	.align 2
.globl _ZN14CExoLinkedListI20NWModuleExpansion_stEC1Ev
	.type _ZN14CExoLinkedListI20NWModuleExpansion_stEC1Ev, @function
_ZN14CExoLinkedListI20NWModuleExpansion_stEC1Ev:
	mov $0x081c18b0, %eax
	jmp *%eax
	.align 2
.globl _ZN14CExoLinkedListI7CERFKeyED2Ev
	.type _ZN14CExoLinkedListI7CERFKeyED2Ev, @function
_ZN14CExoLinkedListI7CERFKeyED2Ev:
	pushl $0
	movl 8(%esp), %eax
	pushl %eax
	mov $0x082b8120, %eax
	call *%eax
	addl $8, %esp
	ret
	.align 2
.globl _ZN14CExoLinkedListI7CERFKeyED1Ev
	.type _ZN14CExoLinkedListI7CERFKeyED1Ev, @function
_ZN14CExoLinkedListI7CERFKeyED1Ev:
	pushl $0
	movl 8(%esp), %eax
	pushl %eax
	mov $0x082b8120, %eax
	call *%eax
	addl $8, %esp
	ret
	.align 2
.globl _ZN14CExoLinkedListI7CERFKeyEC2Ev
	.type _ZN14CExoLinkedListI7CERFKeyEC2Ev, @function
_ZN14CExoLinkedListI7CERFKeyEC2Ev:
	mov $0x082b80f0, %eax
	jmp *%eax
	.align 2
.globl _ZN14CExoLinkedListI7CERFKeyEC1Ev
	.type _ZN14CExoLinkedListI7CERFKeyEC1Ev, @function
_ZN14CExoLinkedListI7CERFKeyEC1Ev:
	mov $0x082b80f0, %eax
	jmp *%eax
	.align 2
.globl _ZN14CExoLinkedListI7CERFResED2Ev
	.type _ZN14CExoLinkedListI7CERFResED2Ev, @function
_ZN14CExoLinkedListI7CERFResED2Ev:
	pushl $0
	movl 8(%esp), %eax
	pushl %eax
	mov $0x082b8334, %eax
	call *%eax
	addl $8, %esp
	ret
	.align 2
.globl _ZN14CExoLinkedListI7CERFResED1Ev
	.type _ZN14CExoLinkedListI7CERFResED1Ev, @function
_ZN14CExoLinkedListI7CERFResED1Ev:
	pushl $0
	movl 8(%esp), %eax
	pushl %eax
	mov $0x082b8334, %eax
	call *%eax
	addl $8, %esp
	ret
	.align 2
.globl _ZN14CExoLinkedListI7CERFResEC2Ev
	.type _ZN14CExoLinkedListI7CERFResEC2Ev, @function
_ZN14CExoLinkedListI7CERFResEC2Ev:
	mov $0x082b815c, %eax
	jmp *%eax
	.align 2
.globl _ZN14CExoLinkedListI7CERFResEC1Ev
	.type _ZN14CExoLinkedListI7CERFResEC1Ev, @function
_ZN14CExoLinkedListI7CERFResEC1Ev:
	mov $0x082b815c, %eax
	jmp *%eax
	.align 2
.globl _ZN14CExoLinkedListI7CResRefED2Ev
	.type _ZN14CExoLinkedListI7CResRefED2Ev, @function
_ZN14CExoLinkedListI7CResRefED2Ev:
	pushl $0
	movl 8(%esp), %eax
	pushl %eax
	mov $0x081c19b8, %eax
	call *%eax
	addl $8, %esp
	ret
	.align 2
.globl _ZN14CExoLinkedListI7CResRefED1Ev
	.type _ZN14CExoLinkedListI7CResRefED1Ev, @function
_ZN14CExoLinkedListI7CResRefED1Ev:
	pushl $0
	movl 8(%esp), %eax
	pushl %eax
	mov $0x081c19b8, %eax
	call *%eax
	addl $8, %esp
	ret
	.align 2
.globl _ZN14CExoLinkedListI7CResRefEC2Ev
	.type _ZN14CExoLinkedListI7CResRefEC2Ev, @function
_ZN14CExoLinkedListI7CResRefEC2Ev:
	mov $0x081c1988, %eax
	jmp *%eax
	.align 2
.globl _ZN14CExoLinkedListI7CResRefEC1Ev
	.type _ZN14CExoLinkedListI7CResRefEC1Ev, @function
_ZN14CExoLinkedListI7CResRefEC1Ev:
	mov $0x081c1988, %eax
	jmp *%eax
	.align 2
.globl _ZN14CExoLinkedListItED2Ev
	.type _ZN14CExoLinkedListItED2Ev, @function
_ZN14CExoLinkedListItED2Ev:
	pushl $0
	movl 8(%esp), %eax
	pushl %eax
	mov $0x082acd80, %eax
	call *%eax
	addl $8, %esp
	ret
	.align 2
.globl _ZN14CExoLinkedListItED1Ev
	.type _ZN14CExoLinkedListItED1Ev, @function
_ZN14CExoLinkedListItED1Ev:
	pushl $0
	movl 8(%esp), %eax
	pushl %eax
	mov $0x082acd80, %eax
	call *%eax
	addl $8, %esp
	ret
	.align 2
.globl _ZN14CExoLinkedListItEC2Ev
	.type _ZN14CExoLinkedListItEC2Ev, @function
_ZN14CExoLinkedListItEC2Ev:
	mov $0x082acd50, %eax
	jmp *%eax
	.align 2
.globl _ZN14CExoLinkedListItEC1Ev
	.type _ZN14CExoLinkedListItEC1Ev, @function
_ZN14CExoLinkedListItEC1Ev:
	mov $0x082acd50, %eax
	jmp *%eax
	.align 2
.globl _ZN16CExoBaseInternalD2Ev
	.type _ZN16CExoBaseInternalD2Ev, @function
_ZN16CExoBaseInternalD2Ev:
	pushl $0
	movl 8(%esp), %eax
	pushl %eax
	mov $0x082ce7dc, %eax
	call *%eax
	addl $8, %esp
	ret
	.align 2
.globl _ZN16CExoBaseInternalD1Ev
	.type _ZN16CExoBaseInternalD1Ev, @function
_ZN16CExoBaseInternalD1Ev:
	pushl $0
	movl 8(%esp), %eax
	pushl %eax
	mov $0x082ce7dc, %eax
	call *%eax
	addl $8, %esp
	ret
	.align 2
.globl _ZN16CExoBaseInternalC2Ev
	.type _ZN16CExoBaseInternalC2Ev, @function
_ZN16CExoBaseInternalC2Ev:
	mov $0x082ce7d0, %eax
	jmp *%eax
	.align 2
.globl _ZN16CExoBaseInternalC1Ev
	.type _ZN16CExoBaseInternalC1Ev, @function
_ZN16CExoBaseInternalC1Ev:
	mov $0x082ce7d0, %eax
	jmp *%eax
	.align 2
.globl _ZN10CNWSPlayerD2Ev
	.type _ZN10CNWSPlayerD2Ev, @function
_ZN10CNWSPlayerD2Ev:
	pushl $0
	movl 8(%esp), %eax
	pushl %eax
	mov $0x08053c9c, %eax
	call *%eax
	addl $8, %esp
	ret
	.align 2
.globl _ZN10CNWSPlayerD1Ev
	.type _ZN10CNWSPlayerD1Ev, @function
_ZN10CNWSPlayerD1Ev:
	pushl $0
	movl 8(%esp), %eax
	pushl %eax
	mov $0x08053c9c, %eax
	call *%eax
	addl $8, %esp
	ret
	.align 2
.globl _ZN10CNWSPlayerC2Em
	.type _ZN10CNWSPlayerC2Em, @function
_ZN10CNWSPlayerC2Em:
	mov $0x0805397c, %eax
	jmp *%eax
	.align 2
.globl _ZN10CNWSPlayerC1Em
	.type _ZN10CNWSPlayerC1Em, @function
_ZN10CNWSPlayerC1Em:
	mov $0x0805397c, %eax
	jmp *%eax
	.align 2
.globl _ZN11CExoResFileD2Ev
	.type _ZN11CExoResFileD2Ev, @function
_ZN11CExoResFileD2Ev:
	pushl $0
	movl 8(%esp), %eax
	pushl %eax
	mov $0x082c46d8, %eax
	call *%eax
	addl $8, %esp
	ret
	.align 2
.globl _ZN11CExoResFileD1Ev
	.type _ZN11CExoResFileD1Ev, @function
_ZN11CExoResFileD1Ev:
	pushl $0
	movl 8(%esp), %eax
	pushl %eax
	mov $0x082c46d8, %eax
	call *%eax
	addl $8, %esp
	ret
	.align 2
.globl _ZN11CExoResFileC2Ev
	.type _ZN11CExoResFileC2Ev, @function
_ZN11CExoResFileC2Ev:
	mov $0x082c2b10, %eax
	jmp *%eax
	.align 2
.globl _ZN11CExoResFileC1Ev
	.type _ZN11CExoResFileC1Ev, @function
_ZN11CExoResFileC1Ev:
	mov $0x082c2b10, %eax
	jmp *%eax
	.align 2
.globl _ZN20CExoEncapsulatedFileD2Ev
	.type _ZN20CExoEncapsulatedFileD2Ev, @function
_ZN20CExoEncapsulatedFileD2Ev:
	pushl $0
	movl 8(%esp), %eax
	pushl %eax
	mov $0x082c4a38, %eax
	call *%eax
	addl $8, %esp
	ret
	.align 2
.globl _ZN20CExoEncapsulatedFileD1Ev
	.type _ZN20CExoEncapsulatedFileD1Ev, @function
_ZN20CExoEncapsulatedFileD1Ev:
	pushl $0
	movl 8(%esp), %eax
	pushl %eax
	mov $0x082c4a38, %eax
	call *%eax
	addl $8, %esp
	ret
	.align 2
.globl _ZN20CExoEncapsulatedFileC2Ev
	.type _ZN20CExoEncapsulatedFileC2Ev, @function
_ZN20CExoEncapsulatedFileC2Ev:
	mov $0x082c2f80, %eax
	jmp *%eax
	.align 2
.globl _ZN20CExoEncapsulatedFileC1Ev
	.type _ZN20CExoEncapsulatedFileC1Ev, @function
_ZN20CExoEncapsulatedFileC1Ev:
	mov $0x082c2f80, %eax
	jmp *%eax
	.align 2
.globl _ZN21CExoResourceImageFileD2Ev
	.type _ZN21CExoResourceImageFileD2Ev, @function
_ZN21CExoResourceImageFileD2Ev:
	pushl $0
	movl 8(%esp), %eax
	pushl %eax
	mov $0x082c4da8, %eax
	call *%eax
	addl $8, %esp
	ret
	.align 2
.globl _ZN21CExoResourceImageFileD1Ev
	.type _ZN21CExoResourceImageFileD1Ev, @function
_ZN21CExoResourceImageFileD1Ev:
	pushl $0
	movl 8(%esp), %eax
	pushl %eax
	mov $0x082c4da8, %eax
	call *%eax
	addl $8, %esp
	ret
	.align 2
.globl _ZN21CExoResourceImageFileC2Ev
	.type _ZN21CExoResourceImageFileC2Ev, @function
_ZN21CExoResourceImageFileC2Ev:
	mov $0x082c3f30, %eax
	jmp *%eax
	.align 2
.globl _ZN21CExoResourceImageFileC1Ev
	.type _ZN21CExoResourceImageFileC1Ev, @function
_ZN21CExoResourceImageFileC1Ev:
	mov $0x082c3f30, %eax
	jmp *%eax
	.align 2
.globl _ZN17CCodeBaseInternalD2Ev
	.type _ZN17CCodeBaseInternalD2Ev, @function
_ZN17CCodeBaseInternalD2Ev:
	pushl $0
	movl 8(%esp), %eax
	pushl %eax
	mov $0x082dac30, %eax
	call *%eax
	addl $8, %esp
	ret
	.align 2
.globl _ZN17CCodeBaseInternalD1Ev
	.type _ZN17CCodeBaseInternalD1Ev, @function
_ZN17CCodeBaseInternalD1Ev:
	pushl $0
	movl 8(%esp), %eax
	pushl %eax
	mov $0x082dac30, %eax
	call *%eax
	addl $8, %esp
	ret
	.align 2
.globl _ZN17CCodeBaseInternalC2Ev
	.type _ZN17CCodeBaseInternalC2Ev, @function
_ZN17CCodeBaseInternalC2Ev:
	mov $0x082daba0, %eax
	jmp *%eax
	.align 2
.globl _ZN17CCodeBaseInternalC1Ev
	.type _ZN17CCodeBaseInternalC1Ev, @function
_ZN17CCodeBaseInternalC1Ev:
	mov $0x082daba0, %eax
	jmp *%eax
	.align 2
.globl _ZN9CCodeBaseD2Ev
	.type _ZN9CCodeBaseD2Ev, @function
_ZN9CCodeBaseD2Ev:
	pushl $0
	movl 8(%esp), %eax
	pushl %eax
	mov $0x082d9a6c, %eax
	call *%eax
	addl $8, %esp
	ret
	.align 2
.globl _ZN9CCodeBaseD1Ev
	.type _ZN9CCodeBaseD1Ev, @function
_ZN9CCodeBaseD1Ev:
	pushl $0
	movl 8(%esp), %eax
	pushl %eax
	mov $0x082d9a6c, %eax
	call *%eax
	addl $8, %esp
	ret
	.align 2
.globl _ZN9CCodeBaseC2Ev
	.type _ZN9CCodeBaseC2Ev, @function
_ZN9CCodeBaseC2Ev:
	mov $0x082d9a24, %eax
	jmp *%eax
	.align 2
.globl _ZN9CCodeBaseC1Ev
	.type _ZN9CCodeBaseC1Ev, @function
_ZN9CCodeBaseC1Ev:
	mov $0x082d9a24, %eax
	jmp *%eax
	.align 2
.globl _ZN13CServerExoAppD2Ev
	.type _ZN13CServerExoAppD2Ev, @function
_ZN13CServerExoAppD2Ev:
	pushl $0
	movl 8(%esp), %eax
	pushl %eax
	mov $0x080b1a68, %eax
	call *%eax
	addl $8, %esp
	ret
	.align 2
.globl _ZN13CServerExoAppD1Ev
	.type _ZN13CServerExoAppD1Ev, @function
_ZN13CServerExoAppD1Ev:
	pushl $0
	movl 8(%esp), %eax
	pushl %eax
	mov $0x080b1a68, %eax
	call *%eax
	addl $8, %esp
	ret
	.align 2
.globl _ZN13CServerExoAppC2Ev
	.type _ZN13CServerExoAppC2Ev, @function
_ZN13CServerExoAppC2Ev:
	mov $0x080b1a14, %eax
	jmp *%eax
	.align 2
.globl _ZN13CServerExoAppC1Ev
	.type _ZN13CServerExoAppC1Ev, @function
_ZN13CServerExoAppC1Ev:
	mov $0x080b1a14, %eax
	jmp *%eax
	.align 2
.globl _ZN21CServerExoAppInternalD2Ev
	.type _ZN21CServerExoAppInternalD2Ev, @function
_ZN21CServerExoAppInternalD2Ev:
	pushl $0
	movl 8(%esp), %eax
	pushl %eax
	mov $0x08098c9c, %eax
	call *%eax
	addl $8, %esp
	ret
	.align 2
.globl _ZN21CServerExoAppInternalD1Ev
	.type _ZN21CServerExoAppInternalD1Ev, @function
_ZN21CServerExoAppInternalD1Ev:
	pushl $0
	movl 8(%esp), %eax
	pushl %eax
	mov $0x08098c9c, %eax
	call *%eax
	addl $8, %esp
	ret
	.align 2
.globl _ZN21CServerExoAppInternalC2Ev
	.type _ZN21CServerExoAppInternalC2Ev, @function
_ZN21CServerExoAppInternalC2Ev:
	mov $0x08098854, %eax
	jmp *%eax
	.align 2
.globl _ZN21CServerExoAppInternalC1Ev
	.type _ZN21CServerExoAppInternalC1Ev, @function
_ZN21CServerExoAppInternalC1Ev:
	mov $0x08098854, %eax
	jmp *%eax
	.align 2
.globl _ZN19CNetLayerPlayerInfoC2Ev
	.type _ZN19CNetLayerPlayerInfoC2Ev, @function
_ZN19CNetLayerPlayerInfoC2Ev:
	mov $0x0829fa54, %eax
	jmp *%eax
	.align 2
.globl _ZN19CNetLayerPlayerInfoC1Ev
	.type _ZN19CNetLayerPlayerInfoC1Ev, @function
_ZN19CNetLayerPlayerInfoC1Ev:
	mov $0x0829fa54, %eax
	jmp *%eax
	.align 2
.globl _ZN16CGameObjectArrayD2Ev
	.type _ZN16CGameObjectArrayD2Ev, @function
_ZN16CGameObjectArrayD2Ev:
	pushl $0
	movl 8(%esp), %eax
	pushl %eax
	mov $0x080bac64, %eax
	call *%eax
	addl $8, %esp
	ret
	.align 2
.globl _ZN16CGameObjectArrayD1Ev
	.type _ZN16CGameObjectArrayD1Ev, @function
_ZN16CGameObjectArrayD1Ev:
	pushl $0
	movl 8(%esp), %eax
	pushl %eax
	mov $0x080bac64, %eax
	call *%eax
	addl $8, %esp
	ret
	.align 2
.globl _ZN16CGameObjectArrayC2Ei
	.type _ZN16CGameObjectArrayC2Ei, @function
_ZN16CGameObjectArrayC2Ei:
	mov $0x080bb17c, %eax
	jmp *%eax
	.align 2
.globl _ZN16CGameObjectArrayC1Ei
	.type _ZN16CGameObjectArrayC1Ei, @function
_ZN16CGameObjectArrayC1Ei:
	mov $0x080bb17c, %eax
	jmp *%eax
	.align 2
.globl _ZN20CNWSCombatAttackDataD2Ev
	.type _ZN20CNWSCombatAttackDataD2Ev, @function
_ZN20CNWSCombatAttackDataD2Ev:
	pushl $0
	movl 8(%esp), %eax
	pushl %eax
	mov $0x080e4ba8, %eax
	call *%eax
	addl $8, %esp
	ret
	.align 2
.globl _ZN20CNWSCombatAttackDataD1Ev
	.type _ZN20CNWSCombatAttackDataD1Ev, @function
_ZN20CNWSCombatAttackDataD1Ev:
	pushl $0
	movl 8(%esp), %eax
	pushl %eax
	mov $0x080e4ba8, %eax
	call *%eax
	addl $8, %esp
	ret
	.align 2
.globl _ZN20CNWSCombatAttackDataC2Ev
	.type _ZN20CNWSCombatAttackDataC2Ev, @function
_ZN20CNWSCombatAttackDataC2Ev:
	mov $0x080e01d4, %eax
	jmp *%eax
	.align 2
.globl _ZN20CNWSCombatAttackDataC1Ev
	.type _ZN20CNWSCombatAttackDataC1Ev, @function
_ZN20CNWSCombatAttackDataC1Ev:
	mov $0x080e01d4, %eax
	jmp *%eax
	.align 2
.globl _ZN7CResGFFD2Ev
	.type _ZN7CResGFFD2Ev, @function
_ZN7CResGFFD2Ev:
	pushl $0
	movl 8(%esp), %eax
	pushl %eax
	mov $0x082b85e0, %eax
	call *%eax
	addl $8, %esp
	ret
	.align 2
.globl _ZN7CResGFFD1Ev
	.type _ZN7CResGFFD1Ev, @function
_ZN7CResGFFD1Ev:
	pushl $0
	movl 8(%esp), %eax
	pushl %eax
	mov $0x082b85e0, %eax
	call *%eax
	addl $8, %esp
	ret
	.align 2
.globl _ZN7CResGFFC2Ev
	.type _ZN7CResGFFC2Ev, @function
_ZN7CResGFFC2Ev:
	mov $0x082b8370, %eax
	jmp *%eax
	.align 2
.globl _ZN7CResGFFC1Ev
	.type _ZN7CResGFFC1Ev, @function
_ZN7CResGFFC1Ev:
	mov $0x082b8370, %eax
	jmp *%eax
	.align 2
.globl _ZN7CResGFFC2EtPcRK7CResRef
	.type _ZN7CResGFFC2EtPcRK7CResRef, @function
_ZN7CResGFFC2EtPcRK7CResRef:
	mov $0x082b8468, %eax
	jmp *%eax
	.align 2
.globl _ZN7CResGFFC1EtPcRK7CResRef
	.type _ZN7CResGFFC1EtPcRK7CResRef, @function
_ZN7CResGFFC1EtPcRK7CResRef:
	mov $0x082b8468, %eax
	jmp *%eax
	.align 2
.globl _ZN12CExoKeyTableD2Ev
	.type _ZN12CExoKeyTableD2Ev, @function
_ZN12CExoKeyTableD2Ev:
	pushl $0
	movl 8(%esp), %eax
	pushl %eax
	mov $0x082bfa18, %eax
	call *%eax
	addl $8, %esp
	ret
	.align 2
.globl _ZN12CExoKeyTableD1Ev
	.type _ZN12CExoKeyTableD1Ev, @function
_ZN12CExoKeyTableD1Ev:
	pushl $0
	movl 8(%esp), %eax
	pushl %eax
	mov $0x082bfa18, %eax
	call *%eax
	addl $8, %esp
	ret
	.align 2
.globl _ZN12CExoKeyTableC2Ev
	.type _ZN12CExoKeyTableC2Ev, @function
_ZN12CExoKeyTableC2Ev:
	mov $0x082bf930, %eax
	jmp *%eax
	.align 2
.globl _ZN12CExoKeyTableC1Ev
	.type _ZN12CExoKeyTableC1Ev, @function
_ZN12CExoKeyTableC1Ev:
	mov $0x082bf930, %eax
	jmp *%eax
	.align 2
.globl _ZN8CNWSTileD2Ev
	.type _ZN8CNWSTileD2Ev, @function
_ZN8CNWSTileD2Ev:
	pushl $0
	movl 8(%esp), %eax
	pushl %eax
	mov $0x081ed970, %eax
	call *%eax
	addl $8, %esp
	ret
	.align 2
.globl _ZN8CNWSTileD1Ev
	.type _ZN8CNWSTileD1Ev, @function
_ZN8CNWSTileD1Ev:
	pushl $0
	movl 8(%esp), %eax
	pushl %eax
	mov $0x081ed970, %eax
	call *%eax
	addl $8, %esp
	ret
	.align 2
.globl _ZN8CNWSTileC2Ev
	.type _ZN8CNWSTileC2Ev, @function
_ZN8CNWSTileC2Ev:
	mov $0x081ed8e4, %eax
	jmp *%eax
	.align 2
.globl _ZN8CNWSTileC1Ev
	.type _ZN8CNWSTileC1Ev, @function
_ZN8CNWSTileC1Ev:
	mov $0x081ed8e4, %eax
	jmp *%eax
	.align 2
.globl _ZN10CExoResManD2Ev
	.type _ZN10CExoResManD2Ev, @function
_ZN10CExoResManD2Ev:
	pushl $0
	movl 8(%esp), %eax
	pushl %eax
	mov $0x082aeeb4, %eax
	call *%eax
	addl $8, %esp
	ret
	.align 2
.globl _ZN10CExoResManD1Ev
	.type _ZN10CExoResManD1Ev, @function
_ZN10CExoResManD1Ev:
	pushl $0
	movl 8(%esp), %eax
	pushl %eax
	mov $0x082aeeb4, %eax
	call *%eax
	addl $8, %esp
	ret
	.align 2
.globl _ZN10CExoResManC2Ev
	.type _ZN10CExoResManC2Ev, @function
_ZN10CExoResManC2Ev:
	mov $0x082aeca0, %eax
	jmp *%eax
	.align 2
.globl _ZN10CExoResManC1Ev
	.type _ZN10CExoResManC1Ev, @function
_ZN10CExoResManC1Ev:
	mov $0x082aeca0, %eax
	jmp *%eax
	.align 2
.globl _ZN14CGameSpyServerD2Ev
	.type _ZN14CGameSpyServerD2Ev, @function
_ZN14CGameSpyServerD2Ev:
	pushl $0
	movl 8(%esp), %eax
	pushl %eax
	mov $0x08274338, %eax
	call *%eax
	addl $8, %esp
	ret
	.align 2
.globl _ZN14CGameSpyServerD1Ev
	.type _ZN14CGameSpyServerD1Ev, @function
_ZN14CGameSpyServerD1Ev:
	pushl $0
	movl 8(%esp), %eax
	pushl %eax
	mov $0x08274338, %eax
	call *%eax
	addl $8, %esp
	ret
	.align 2
.globl _ZN14CGameSpyServerC2EiP14CConnectionLibRi
	.type _ZN14CGameSpyServerC2EiP14CConnectionLibRi, @function
_ZN14CGameSpyServerC2EiP14CConnectionLibRi:
	mov $0x0827428c, %eax
	jmp *%eax
	.align 2
.globl _ZN14CGameSpyServerC1EiP14CConnectionLibRi
	.type _ZN14CGameSpyServerC1EiP14CConnectionLibRi, @function
_ZN14CGameSpyServerC1EiP14CConnectionLibRi:
	mov $0x0827428c, %eax
	jmp *%eax
	.align 2
.globl _ZN15CServerAIMasterD2Ev
	.type _ZN15CServerAIMasterD2Ev, @function
_ZN15CServerAIMasterD2Ev:
	pushl $0
	movl 8(%esp), %eax
	pushl %eax
	mov $0x08095c28, %eax
	call *%eax
	addl $8, %esp
	ret
	.align 2
.globl _ZN15CServerAIMasterD1Ev
	.type _ZN15CServerAIMasterD1Ev, @function
_ZN15CServerAIMasterD1Ev:
	pushl $0
	movl 8(%esp), %eax
	pushl %eax
	mov $0x08095c28, %eax
	call *%eax
	addl $8, %esp
	ret
	.align 2
.globl _ZN15CServerAIMasterC2Ev
	.type _ZN15CServerAIMasterC2Ev, @function
_ZN15CServerAIMasterC2Ev:
	mov $0x08095a9c, %eax
	jmp *%eax
	.align 2
.globl _ZN15CServerAIMasterC1Ev
	.type _ZN15CServerAIMasterC1Ev, @function
_ZN15CServerAIMasterC1Ev:
	mov $0x08095a9c, %eax
	jmp *%eax
	.align 2
.globl _ZN17CNWSCreatureStatsD2Ev
	.type _ZN17CNWSCreatureStatsD2Ev, @function
_ZN17CNWSCreatureStatsD2Ev:
	pushl $0
	movl 8(%esp), %eax
	pushl %eax
	mov $0x0814035c, %eax
	call *%eax
	addl $8, %esp
	ret
	.align 2
.globl _ZN17CNWSCreatureStatsD1Ev
	.type _ZN17CNWSCreatureStatsD1Ev, @function
_ZN17CNWSCreatureStatsD1Ev:
	pushl $0
	movl 8(%esp), %eax
	pushl %eax
	mov $0x0814035c, %eax
	call *%eax
	addl $8, %esp
	ret
	.align 2
.globl _ZN17CNWSCreatureStatsC2EP12CNWSCreature
	.type _ZN17CNWSCreatureStatsC2EP12CNWSCreature, @function
_ZN17CNWSCreatureStatsC2EP12CNWSCreature:
	mov $0x0813fbb4, %eax
	jmp *%eax
	.align 2
.globl _ZN17CNWSCreatureStatsC1EP12CNWSCreature
	.type _ZN17CNWSCreatureStatsC1EP12CNWSCreature, @function
_ZN17CNWSCreatureStatsC1EP12CNWSCreature:
	mov $0x0813fbb4, %eax
	jmp *%eax
	.align 2
.globl _ZN13CNWLevelStatsD2Ev
	.type _ZN13CNWLevelStatsD2Ev, @function
_ZN13CNWLevelStatsD2Ev:
	pushl $0
	movl 8(%esp), %eax
	pushl %eax
	mov $0x080bf8d8, %eax
	call *%eax
	addl $8, %esp
	ret
	.align 2
.globl _ZN13CNWLevelStatsD1Ev
	.type _ZN13CNWLevelStatsD1Ev, @function
_ZN13CNWLevelStatsD1Ev:
	pushl $0
	movl 8(%esp), %eax
	pushl %eax
	mov $0x080bf8d8, %eax
	call *%eax
	addl $8, %esp
	ret
	.align 2
.globl _ZN13CNWLevelStatsC2Ev
	.type _ZN13CNWLevelStatsC2Ev, @function
_ZN13CNWLevelStatsC2Ev:
	mov $0x080bf6f0, %eax
	jmp *%eax
	.align 2
.globl _ZN13CNWLevelStatsC1Ev
	.type _ZN13CNWLevelStatsC1Ev, @function
_ZN13CNWLevelStatsC1Ev:
	mov $0x080bf6f0, %eax
	jmp *%eax
	.align 2
.globl _ZN18CObjectLookupTableD2Ev
	.type _ZN18CObjectLookupTableD2Ev, @function
_ZN18CObjectLookupTableD2Ev:
	pushl $0
	movl 8(%esp), %eax
	pushl %eax
	mov $0x08094a10, %eax
	call *%eax
	addl $8, %esp
	ret
	.align 2
.globl _ZN18CObjectLookupTableD1Ev
	.type _ZN18CObjectLookupTableD1Ev, @function
_ZN18CObjectLookupTableD1Ev:
	pushl $0
	movl 8(%esp), %eax
	pushl %eax
	mov $0x08094a10, %eax
	call *%eax
	addl $8, %esp
	ret
	.align 2
.globl _ZN18CObjectLookupTableC2Ev
	.type _ZN18CObjectLookupTableC2Ev, @function
_ZN18CObjectLookupTableC2Ev:
	mov $0x080949d0, %eax
	jmp *%eax
	.align 2
.globl _ZN18CObjectLookupTableC1Ev
	.type _ZN18CObjectLookupTableC1Ev, @function
_ZN18CObjectLookupTableC1Ev:
	mov $0x080949d0, %eax
	jmp *%eax
	.align 2
.globl _ZN19CObjectTableManagerD2Ev
	.type _ZN19CObjectTableManagerD2Ev, @function
_ZN19CObjectTableManagerD2Ev:
	pushl $0
	movl 8(%esp), %eax
	pushl %eax
	mov $0x08094c84, %eax
	call *%eax
	addl $8, %esp
	ret
	.align 2
.globl _ZN19CObjectTableManagerD1Ev
	.type _ZN19CObjectTableManagerD1Ev, @function
_ZN19CObjectTableManagerD1Ev:
	pushl $0
	movl 8(%esp), %eax
	pushl %eax
	mov $0x08094c84, %eax
	call *%eax
	addl $8, %esp
	ret
	.align 2
.globl _ZN19CObjectTableManagerC2Ev
	.type _ZN19CObjectTableManagerC2Ev, @function
_ZN19CObjectTableManagerC2Ev:
	mov $0x08094c60, %eax
	jmp *%eax
	.align 2
.globl _ZN19CObjectTableManagerC1Ev
	.type _ZN19CObjectTableManagerC1Ev, @function
_ZN19CObjectTableManagerC1Ev:
	mov $0x08094c60, %eax
	jmp *%eax
	.align 2
.globl _ZN10CNWSBarterD2Ev
	.type _ZN10CNWSBarterD2Ev, @function
_ZN10CNWSBarterD2Ev:
	pushl $0
	movl 8(%esp), %eax
	pushl %eax
	mov $0x080ded24, %eax
	call *%eax
	addl $8, %esp
	ret
	.align 2
.globl _ZN10CNWSBarterD1Ev
	.type _ZN10CNWSBarterD1Ev, @function
_ZN10CNWSBarterD1Ev:
	pushl $0
	movl 8(%esp), %eax
	pushl %eax
	mov $0x080ded24, %eax
	call *%eax
	addl $8, %esp
	ret
	.align 2
.globl _ZN10CNWSBarterC2EP12CNWSCreature
	.type _ZN10CNWSBarterC2EP12CNWSCreature, @function
_ZN10CNWSBarterC2EP12CNWSCreature:
	mov $0x080dec44, %eax
	jmp *%eax
	.align 2
.globl _ZN10CNWSBarterC1EP12CNWSCreature
	.type _ZN10CNWSBarterC1EP12CNWSCreature, @function
_ZN10CNWSBarterC1EP12CNWSCreature:
	mov $0x080dec44, %eax
	jmp *%eax
	.align 2
.globl _ZN15CItemRepositoryD2Ev
	.type _ZN15CItemRepositoryD2Ev, @function
_ZN15CItemRepositoryD2Ev:
	pushl $0
	movl 8(%esp), %eax
	pushl %eax
	mov $0x081a699c, %eax
	call *%eax
	addl $8, %esp
	ret
	.align 2
.globl _ZN15CItemRepositoryD1Ev
	.type _ZN15CItemRepositoryD1Ev, @function
_ZN15CItemRepositoryD1Ev:
	pushl $0
	movl 8(%esp), %eax
	pushl %eax
	mov $0x081a699c, %eax
	call *%eax
	addl $8, %esp
	ret
	.align 2
.globl _ZN15CItemRepositoryC2Emhhmi
	.type _ZN15CItemRepositoryC2Emhhmi, @function
_ZN15CItemRepositoryC2Emhhmi:
	mov $0x081a6928, %eax
	jmp *%eax
	.align 2
.globl _ZN15CItemRepositoryC1Emhhmi
	.type _ZN15CItemRepositoryC1Emhhmi, @function
_ZN15CItemRepositoryC1Emhhmi:
	mov $0x081a6928, %eax
	jmp *%eax
	.align 2
.globl _ZN10CNWSDialogD2Ev
	.type _ZN10CNWSDialogD2Ev, @function
_ZN10CNWSDialogD2Ev:
	pushl $0
	movl 8(%esp), %eax
	pushl %eax
	mov $0x081d5790, %eax
	call *%eax
	addl $8, %esp
	ret
	.align 2
.globl _ZN10CNWSDialogD1Ev
	.type _ZN10CNWSDialogD1Ev, @function
_ZN10CNWSDialogD1Ev:
	pushl $0
	movl 8(%esp), %eax
	pushl %eax
	mov $0x081d5790, %eax
	call *%eax
	addl $8, %esp
	ret
	.align 2
.globl _ZN10CNWSDialogC2Ev
	.type _ZN10CNWSDialogC2Ev, @function
_ZN10CNWSDialogC2Ev:
	mov $0x0823ace0, %eax
	jmp *%eax
	.align 2
.globl _ZN10CNWSDialogC1Ev
	.type _ZN10CNWSDialogC1Ev, @function
_ZN10CNWSDialogC1Ev:
	mov $0x0823ace0, %eax
	jmp *%eax
	.align 2
.globl _ZN26CNWSPlayerLastUpdateObjectD2Ev
	.type _ZN26CNWSPlayerLastUpdateObjectD2Ev, @function
_ZN26CNWSPlayerLastUpdateObjectD2Ev:
	pushl $0
	movl 8(%esp), %eax
	pushl %eax
	mov $0x081e36c8, %eax
	call *%eax
	addl $8, %esp
	ret
	.align 2
.globl _ZN26CNWSPlayerLastUpdateObjectD1Ev
	.type _ZN26CNWSPlayerLastUpdateObjectD1Ev, @function
_ZN26CNWSPlayerLastUpdateObjectD1Ev:
	pushl $0
	movl 8(%esp), %eax
	pushl %eax
	mov $0x081e36c8, %eax
	call *%eax
	addl $8, %esp
	ret
	.align 2
.globl _ZN26CNWSPlayerLastUpdateObjectC2Ev
	.type _ZN26CNWSPlayerLastUpdateObjectC2Ev, @function
_ZN26CNWSPlayerLastUpdateObjectC2Ev:
	mov $0x081e30d8, %eax
	jmp *%eax
	.align 2
.globl _ZN26CNWSPlayerLastUpdateObjectC1Ev
	.type _ZN26CNWSPlayerLastUpdateObjectC1Ev, @function
_ZN26CNWSPlayerLastUpdateObjectC1Ev:
	mov $0x081e30d8, %eax
	jmp *%eax
	.align 2
.globl _ZN27CNWSCreatureStats_ClassInfoD2Ev
	.type _ZN27CNWSCreatureStats_ClassInfoD2Ev, @function
_ZN27CNWSCreatureStats_ClassInfoD2Ev:
	pushl $0
	movl 8(%esp), %eax
	pushl %eax
	mov $0x0813f314, %eax
	call *%eax
	addl $8, %esp
	ret
	.align 2
.globl _ZN27CNWSCreatureStats_ClassInfoD1Ev
	.type _ZN27CNWSCreatureStats_ClassInfoD1Ev, @function
_ZN27CNWSCreatureStats_ClassInfoD1Ev:
	pushl $0
	movl 8(%esp), %eax
	pushl %eax
	mov $0x0813f314, %eax
	call *%eax
	addl $8, %esp
	ret
	.align 2
.globl _ZN27CNWSCreatureStats_ClassInfoC2Ev
	.type _ZN27CNWSCreatureStats_ClassInfoC2Ev, @function
_ZN27CNWSCreatureStats_ClassInfoC2Ev:
	mov $0x0813f19c, %eax
	jmp *%eax
	.align 2
.globl _ZN27CNWSCreatureStats_ClassInfoC1Ev
	.type _ZN27CNWSCreatureStats_ClassInfoC1Ev, @function
_ZN27CNWSCreatureStats_ClassInfoC1Ev:
	mov $0x0813f19c, %eax
	jmp *%eax
	.align 2
.globl _ZN11CNWSFactionD2Ev
	.type _ZN11CNWSFactionD2Ev, @function
_ZN11CNWSFactionD2Ev:
	pushl $0
	movl 8(%esp), %eax
	pushl %eax
	mov $0x081d7d30, %eax
	call *%eax
	addl $8, %esp
	ret
	.align 2
.globl _ZN11CNWSFactionD1Ev
	.type _ZN11CNWSFactionD1Ev, @function
_ZN11CNWSFactionD1Ev:
	pushl $0
	movl 8(%esp), %eax
	pushl %eax
	mov $0x081d7d30, %eax
	call *%eax
	addl $8, %esp
	ret
	.align 2
.globl _ZN11CNWSFactionC2Ev
	.type _ZN11CNWSFactionC2Ev, @function
_ZN11CNWSFactionC2Ev:
	mov $0x081d68ec, %eax
	jmp *%eax
	.align 2
.globl _ZN11CNWSFactionC1Ev
	.type _ZN11CNWSFactionC1Ev, @function
_ZN11CNWSFactionC1Ev:
	mov $0x081d68ec, %eax
	jmp *%eax
	.align 2
.globl _ZN11CNWSFactionC2Em
	.type _ZN11CNWSFactionC2Em, @function
_ZN11CNWSFactionC2Em:
	mov $0x081d67c0, %eax
	jmp *%eax
	.align 2
.globl _ZN11CNWSFactionC1Em
	.type _ZN11CNWSFactionC1Em, @function
_ZN11CNWSFactionC1Em:
	mov $0x081d67c0, %eax
	jmp *%eax
	.align 2
.globl _ZN16CNetworkProfilerD2Ev
	.type _ZN16CNetworkProfilerD2Ev, @function
_ZN16CNetworkProfilerD2Ev:
	pushl $0
	movl 8(%esp), %eax
	pushl %eax
	mov $0x082c70e8, %eax
	call *%eax
	addl $8, %esp
	ret
	.align 2
.globl _ZN16CNetworkProfilerD1Ev
	.type _ZN16CNetworkProfilerD1Ev, @function
_ZN16CNetworkProfilerD1Ev:
	pushl $0
	movl 8(%esp), %eax
	pushl %eax
	mov $0x082c70e8, %eax
	call *%eax
	addl $8, %esp
	ret
	.align 2
.globl _ZN16CNetworkProfilerC2Ev
	.type _ZN16CNetworkProfilerC2Ev, @function
_ZN16CNetworkProfilerC2Ev:
	mov $0x082c6ff8, %eax
	jmp *%eax
	.align 2
.globl _ZN16CNetworkProfilerC1Ev
	.type _ZN16CNetworkProfilerC1Ev, @function
_ZN16CNetworkProfilerC1Ev:
	mov $0x082c6ff8, %eax
	jmp *%eax
	.align 2
.globl _ZN18CNWSExpressionListD2Ev
	.type _ZN18CNWSExpressionListD2Ev, @function
_ZN18CNWSExpressionListD2Ev:
	pushl $0
	movl 8(%esp), %eax
	pushl %eax
	mov $0x0823ff74, %eax
	call *%eax
	addl $8, %esp
	ret
	.align 2
.globl _ZN18CNWSExpressionListD1Ev
	.type _ZN18CNWSExpressionListD1Ev, @function
_ZN18CNWSExpressionListD1Ev:
	pushl $0
	movl 8(%esp), %eax
	pushl %eax
	mov $0x0823ff74, %eax
	call *%eax
	addl $8, %esp
	ret
	.align 2
.globl _ZN18CNWSExpressionListC2Ev
	.type _ZN18CNWSExpressionListC2Ev, @function
_ZN18CNWSExpressionListC2Ev:
	mov $0x0823ff58, %eax
	jmp *%eax
	.align 2
.globl _ZN18CNWSExpressionListC1Ev
	.type _ZN18CNWSExpressionListC1Ev, @function
_ZN18CNWSExpressionListC1Ev:
	mov $0x0823ff58, %eax
	jmp *%eax
	.align 2
.globl _ZN13CServerAIListD2Ev
	.type _ZN13CServerAIListD2Ev, @function
_ZN13CServerAIListD2Ev:
	pushl $0
	movl 8(%esp), %eax
	pushl %eax
	mov $0x08097fa0, %eax
	call *%eax
	addl $8, %esp
	ret
	.align 2
.globl _ZN13CServerAIListD1Ev
	.type _ZN13CServerAIListD1Ev, @function
_ZN13CServerAIListD1Ev:
	pushl $0
	movl 8(%esp), %eax
	pushl %eax
	mov $0x08097fa0, %eax
	call *%eax
	addl $8, %esp
	ret
	.align 2
.globl _ZN13CServerAIListC2Ev
	.type _ZN13CServerAIListC2Ev, @function
_ZN13CServerAIListC2Ev:
	mov $0x08097f7c, %eax
	jmp *%eax
	.align 2
.globl _ZN13CServerAIListC1Ev
	.type _ZN13CServerAIListC1Ev, @function
_ZN13CServerAIListC1Ev:
	mov $0x08097f7c, %eax
	jmp *%eax
	.align 2
.globl _ZN11CNWTileDataD2Ev
	.type _ZN11CNWTileDataD2Ev, @function
_ZN11CNWTileDataD2Ev:
	pushl $0
	movl 8(%esp), %eax
	pushl %eax
	mov $0x081f5600, %eax
	call *%eax
	addl $8, %esp
	ret
	.align 2
.globl _ZN11CNWTileDataD1Ev
	.type _ZN11CNWTileDataD1Ev, @function
_ZN11CNWTileDataD1Ev:
	pushl $0
	movl 8(%esp), %eax
	pushl %eax
	mov $0x081f5600, %eax
	call *%eax
	addl $8, %esp
	ret
	.align 2
.globl _ZN11CNWTileDataC2Ev
	.type _ZN11CNWTileDataC2Ev, @function
_ZN11CNWTileDataC2Ev:
	mov $0x081f52e4, %eax
	jmp *%eax
	.align 2
.globl _ZN11CNWTileDataC1Ev
	.type _ZN11CNWTileDataC1Ev, @function
_ZN11CNWTileDataC1Ev:
	mov $0x081f52e4, %eax
	jmp *%eax
	.align 2
.globl _ZN8CERFFileD2Ev
	.type _ZN8CERFFileD2Ev, @function
_ZN8CERFFileD2Ev:
	pushl $0
	movl 8(%esp), %eax
	pushl %eax
	mov $0x082b7af8, %eax
	call *%eax
	addl $8, %esp
	ret
	.align 2
.globl _ZN8CERFFileD1Ev
	.type _ZN8CERFFileD1Ev, @function
_ZN8CERFFileD1Ev:
	pushl $0
	movl 8(%esp), %eax
	pushl %eax
	mov $0x082b7af8, %eax
	call *%eax
	addl $8, %esp
	ret
	.align 2
.globl _ZN8CERFFileC2Ev
	.type _ZN8CERFFileC2Ev, @function
_ZN8CERFFileC2Ev:
	mov $0x082b647c, %eax
	jmp *%eax
	.align 2
.globl _ZN8CERFFileC1Ev
	.type _ZN8CERFFileC1Ev, @function
_ZN8CERFFileC1Ev:
	mov $0x082b647c, %eax
	jmp *%eax
	.align 2
.globl _ZN14CConnectionLibD2Ev
	.type _ZN14CConnectionLibD2Ev, @function
_ZN14CConnectionLibD2Ev:
	pushl $0
	movl 8(%esp), %eax
	pushl %eax
	mov $0x08271fb0, %eax
	call *%eax
	addl $8, %esp
	ret
	.align 2
.globl _ZN14CConnectionLibD1Ev
	.type _ZN14CConnectionLibD1Ev, @function
_ZN14CConnectionLibD1Ev:
	pushl $0
	movl 8(%esp), %eax
	pushl %eax
	mov $0x08271fb0, %eax
	call *%eax
	addl $8, %esp
	ret
	.align 2
.globl _ZN14CConnectionLibC2EP11CBaseExoApp
	.type _ZN14CConnectionLibC2EP11CBaseExoApp, @function
_ZN14CConnectionLibC2EP11CBaseExoApp:
	mov $0x08271d24, %eax
	jmp *%eax
	.align 2
.globl _ZN14CConnectionLibC1EP11CBaseExoApp
	.type _ZN14CConnectionLibC1EP11CBaseExoApp, @function
_ZN14CConnectionLibC1EP11CBaseExoApp:
	mov $0x08271d24, %eax
	jmp *%eax
	.align 2
.globl _ZN14CExoStringListD2Ev
	.type _ZN14CExoStringListD2Ev, @function
_ZN14CExoStringListD2Ev:
	pushl $0
	movl 8(%esp), %eax
	pushl %eax
	mov $0x082cabe0, %eax
	call *%eax
	addl $8, %esp
	ret
	.align 2
.globl _ZN14CExoStringListD1Ev
	.type _ZN14CExoStringListD1Ev, @function
_ZN14CExoStringListD1Ev:
	pushl $0
	movl 8(%esp), %eax
	pushl %eax
	mov $0x082cabe0, %eax
	call *%eax
	addl $8, %esp
	ret
	.align 2
.globl _ZN14CExoStringListC2Ev
	.type _ZN14CExoStringListC2Ev, @function
_ZN14CExoStringListC2Ev:
	mov $0x082cab78, %eax
	jmp *%eax
	.align 2
.globl _ZN14CExoStringListC1Ev
	.type _ZN14CExoStringListC1Ev, @function
_ZN14CExoStringListC1Ev:
	mov $0x082cab78, %eax
	jmp *%eax
	.align 2
.globl _ZN14CExoStringListC2EPS_
	.type _ZN14CExoStringListC2EPS_, @function
_ZN14CExoStringListC2EPS_:
	mov $0x082ca4ec, %eax
	jmp *%eax
	.align 2
.globl _ZN14CExoStringListC1EPS_
	.type _ZN14CExoStringListC1EPS_, @function
_ZN14CExoStringListC1EPS_:
	mov $0x082ca4ec, %eax
	jmp *%eax
	.align 2
.globl _ZN14CExoStringListC2Eiii
	.type _ZN14CExoStringListC2Eiii, @function
_ZN14CExoStringListC2Eiii:
	mov $0x082caba4, %eax
	jmp *%eax
	.align 2
.globl _ZN14CExoStringListC1Eiii
	.type _ZN14CExoStringListC1Eiii, @function
_ZN14CExoStringListC1Eiii:
	mov $0x082caba4, %eax
	jmp *%eax
	.align 2
.globl _ZN7CNWAreaD2Ev
	.type _ZN7CNWAreaD2Ev, @function
_ZN7CNWAreaD2Ev:
	pushl $0
	movl 8(%esp), %eax
	pushl %eax
	mov $0x080bb4f8, %eax
	call *%eax
	addl $8, %esp
	ret
	.align 2
.globl _ZN7CNWAreaD1Ev
	.type _ZN7CNWAreaD1Ev, @function
_ZN7CNWAreaD1Ev:
	pushl $0
	movl 8(%esp), %eax
	pushl %eax
	mov $0x080bb4f8, %eax
	call *%eax
	addl $8, %esp
	ret
	.align 2
.globl _ZN7CNWAreaC2Ev
	.type _ZN7CNWAreaC2Ev, @function
_ZN7CNWAreaC2Ev:
	mov $0x080bb3b4, %eax
	jmp *%eax
	.align 2
.globl _ZN7CNWAreaC1Ev
	.type _ZN7CNWAreaC1Ev, @function
_ZN7CNWAreaC1Ev:
	mov $0x080bb3b4, %eax
	jmp *%eax
	.align 2
.globl _ZN13CExoLocStringD2Ev
	.type _ZN13CExoLocStringD2Ev, @function
_ZN13CExoLocStringD2Ev:
	pushl $0
	movl 8(%esp), %eax
	pushl %eax
	mov $0x082c9f60, %eax
	call *%eax
	addl $8, %esp
	ret
	.align 2
.globl _ZN13CExoLocStringD1Ev
	.type _ZN13CExoLocStringD1Ev, @function
_ZN13CExoLocStringD1Ev:
	pushl $0
	movl 8(%esp), %eax
	pushl %eax
	mov $0x082c9f60, %eax
	call *%eax
	addl $8, %esp
	ret
	.align 2
.globl _ZN13CExoLocStringC2Ev
	.type _ZN13CExoLocStringC2Ev, @function
_ZN13CExoLocStringC2Ev:
	mov $0x082c9eb8, %eax
	jmp *%eax
	.align 2
.globl _ZN13CExoLocStringC1Ev
	.type _ZN13CExoLocStringC1Ev, @function
_ZN13CExoLocStringC1Ev:
	mov $0x082c9eb8, %eax
	jmp *%eax
	.align 2
.globl _ZN13CExoLocStringC2ERKS_
	.type _ZN13CExoLocStringC2ERKS_, @function
_ZN13CExoLocStringC2ERKS_:
	mov $0x082c9f08, %eax
	jmp *%eax
	.align 2
.globl _ZN13CExoLocStringC1ERKS_
	.type _ZN13CExoLocStringC1ERKS_, @function
_ZN13CExoLocStringC1ERKS_:
	mov $0x082c9f08, %eax
	jmp *%eax
	.align 2
.globl _ZN21CExoLocStringInternalD2Ev
	.type _ZN21CExoLocStringInternalD2Ev, @function
_ZN21CExoLocStringInternalD2Ev:
	pushl $0
	movl 8(%esp), %eax
	pushl %eax
	mov $0x082d0fb8, %eax
	call *%eax
	addl $8, %esp
	ret
	.align 2
.globl _ZN21CExoLocStringInternalD1Ev
	.type _ZN21CExoLocStringInternalD1Ev, @function
_ZN21CExoLocStringInternalD1Ev:
	pushl $0
	movl 8(%esp), %eax
	pushl %eax
	mov $0x082d0fb8, %eax
	call *%eax
	addl $8, %esp
	ret
	.align 2
.globl _ZN21CExoLocStringInternalC2Ev
	.type _ZN21CExoLocStringInternalC2Ev, @function
_ZN21CExoLocStringInternalC2Ev:
	mov $0x082d0f98, %eax
	jmp *%eax
	.align 2
.globl _ZN21CExoLocStringInternalC1Ev
	.type _ZN21CExoLocStringInternalC1Ev, @function
_ZN21CExoLocStringInternalC1Ev:
	mov $0x082d0f98, %eax
	jmp *%eax
	.align 2
.globl _ZN15CScriptCompilerD2Ev
	.type _ZN15CScriptCompilerD2Ev, @function
_ZN15CScriptCompilerD2Ev:
	pushl $0
	movl 8(%esp), %eax
	pushl %eax
	mov $0x08243724, %eax
	call *%eax
	addl $8, %esp
	ret
	.align 2
.globl _ZN15CScriptCompilerD1Ev
	.type _ZN15CScriptCompilerD1Ev, @function
_ZN15CScriptCompilerD1Ev:
	pushl $0
	movl 8(%esp), %eax
	pushl %eax
	mov $0x08243724, %eax
	call *%eax
	addl $8, %esp
	ret
	.align 2
.globl _ZN15CScriptCompilerC2Ev
	.type _ZN15CScriptCompilerC2Ev, @function
_ZN15CScriptCompilerC2Ev:
	mov $0x08242f2c, %eax
	jmp *%eax
	.align 2
.globl _ZN15CScriptCompilerC1Ev
	.type _ZN15CScriptCompilerC1Ev, @function
_ZN15CScriptCompilerC1Ev:
	mov $0x08242f2c, %eax
	jmp *%eax
	.align 2
.globl _ZN15CNetLayerWindowD2Ev
	.type _ZN15CNetLayerWindowD2Ev, @function
_ZN15CNetLayerWindowD2Ev:
	pushl $0
	movl 8(%esp), %eax
	pushl %eax
	mov $0x082ab140, %eax
	call *%eax
	addl $8, %esp
	ret
	.align 2
.globl _ZN15CNetLayerWindowD1Ev
	.type _ZN15CNetLayerWindowD1Ev, @function
_ZN15CNetLayerWindowD1Ev:
	pushl $0
	movl 8(%esp), %eax
	pushl %eax
	mov $0x082ab140, %eax
	call *%eax
	addl $8, %esp
	ret
	.align 2
.globl _ZN15CNetLayerWindowC2Ev
	.type _ZN15CNetLayerWindowC2Ev, @function
_ZN15CNetLayerWindowC2Ev:
	mov $0x0829e29c, %eax
	jmp *%eax
	.align 2
.globl _ZN15CNetLayerWindowC1Ev
	.type _ZN15CNetLayerWindowC1Ev, @function
_ZN15CNetLayerWindowC1Ev:
	mov $0x0829e29c, %eax
	jmp *%eax
	.align 2
.globl _ZN20CVirtualMachineStackD2Ev
	.type _ZN20CVirtualMachineStackD2Ev, @function
_ZN20CVirtualMachineStackD2Ev:
	pushl $0
	movl 8(%esp), %eax
	pushl %eax
	mov $0x08263e5c, %eax
	call *%eax
	addl $8, %esp
	ret
	.align 2
.globl _ZN20CVirtualMachineStackD1Ev
	.type _ZN20CVirtualMachineStackD1Ev, @function
_ZN20CVirtualMachineStackD1Ev:
	pushl $0
	movl 8(%esp), %eax
	pushl %eax
	mov $0x08263e5c, %eax
	call *%eax
	addl $8, %esp
	ret
	.align 2
.globl _ZN20CVirtualMachineStackC2Ev
	.type _ZN20CVirtualMachineStackC2Ev, @function
_ZN20CVirtualMachineStackC2Ev:
	mov $0x08263e30, %eax
	jmp *%eax
	.align 2
.globl _ZN20CVirtualMachineStackC1Ev
	.type _ZN20CVirtualMachineStackC1Ev, @function
_ZN20CVirtualMachineStackC1Ev:
	mov $0x08263e30, %eax
	jmp *%eax
	.align 2
.globl _ZN13CExoArrayListI10CExoStringED2Ev
	.type _ZN13CExoArrayListI10CExoStringED2Ev, @function
_ZN13CExoArrayListI10CExoStringED2Ev:
	pushl $0
	movl 8(%esp), %eax
	pushl %eax
	mov $0x08050f60, %eax
	call *%eax
	addl $8, %esp
	ret
	.align 2
.globl _ZN13CExoArrayListI10CExoStringED1Ev
	.type _ZN13CExoArrayListI10CExoStringED1Ev, @function
_ZN13CExoArrayListI10CExoStringED1Ev:
	pushl $0
	movl 8(%esp), %eax
	pushl %eax
	mov $0x08050f60, %eax
	call *%eax
	addl $8, %esp
	ret
	.align 2
.globl _ZN13CExoArrayListI10CExoStringEC2Ei
	.type _ZN13CExoArrayListI10CExoStringEC2Ei, @function
_ZN13CExoArrayListI10CExoStringEC2Ei:
	mov $0x08050f2c, %eax
	jmp *%eax
	.align 2
.globl _ZN13CExoArrayListI10CExoStringEC1Ei
	.type _ZN13CExoArrayListI10CExoStringEC1Ei, @function
_ZN13CExoArrayListI10CExoStringEC1Ei:
	mov $0x08050f2c, %eax
	jmp *%eax
	.align 2
.globl _ZN13CExoArrayListIP20CLoopingVisualEffectED2Ev
	.type _ZN13CExoArrayListIP20CLoopingVisualEffectED2Ev, @function
_ZN13CExoArrayListIP20CLoopingVisualEffectED2Ev:
	pushl $0
	movl 8(%esp), %eax
	pushl %eax
	mov $0x081d6418, %eax
	call *%eax
	addl $8, %esp
	ret
	.align 2
.globl _ZN13CExoArrayListIP20CLoopingVisualEffectED1Ev
	.type _ZN13CExoArrayListIP20CLoopingVisualEffectED1Ev, @function
_ZN13CExoArrayListIP20CLoopingVisualEffectED1Ev:
	pushl $0
	movl 8(%esp), %eax
	pushl %eax
	mov $0x081d6418, %eax
	call *%eax
	addl $8, %esp
	ret
	.align 2
.globl _ZN13CExoArrayListIP20CLoopingVisualEffectEC2Ei
	.type _ZN13CExoArrayListIP20CLoopingVisualEffectEC2Ei, @function
_ZN13CExoArrayListIP20CLoopingVisualEffectEC2Ei:
	mov $0x081d63e4, %eax
	jmp *%eax
	.align 2
.globl _ZN13CExoArrayListIP20CLoopingVisualEffectEC1Ei
	.type _ZN13CExoArrayListIP20CLoopingVisualEffectEC1Ei, @function
_ZN13CExoArrayListIP20CLoopingVisualEffectEC1Ei:
	mov $0x081d63e4, %eax
	jmp *%eax
	.align 2
.globl _ZN13CExoArrayListIP24NWPlayerCharacterList_stED2Ev
	.type _ZN13CExoArrayListIP24NWPlayerCharacterList_stED2Ev, @function
_ZN13CExoArrayListIP24NWPlayerCharacterList_stED2Ev:
	pushl $0
	movl 8(%esp), %eax
	pushl %eax
	mov $0x08082f24, %eax
	call *%eax
	addl $8, %esp
	ret
	.align 2
.globl _ZN13CExoArrayListIP24NWPlayerCharacterList_stED1Ev
	.type _ZN13CExoArrayListIP24NWPlayerCharacterList_stED1Ev, @function
_ZN13CExoArrayListIP24NWPlayerCharacterList_stED1Ev:
	pushl $0
	movl 8(%esp), %eax
	pushl %eax
	mov $0x08082f24, %eax
	call *%eax
	addl $8, %esp
	ret
	.align 2
.globl _ZN13CExoArrayListIP24NWPlayerCharacterList_stEC2Ei
	.type _ZN13CExoArrayListIP24NWPlayerCharacterList_stEC2Ei, @function
_ZN13CExoArrayListIP24NWPlayerCharacterList_stEC2Ei:
	mov $0x08082ef0, %eax
	jmp *%eax
	.align 2
.globl _ZN13CExoArrayListIP24NWPlayerCharacterList_stEC1Ei
	.type _ZN13CExoArrayListIP24NWPlayerCharacterList_stEC1Ei, @function
_ZN13CExoArrayListIP24NWPlayerCharacterList_stEC1Ei:
	mov $0x08082ef0, %eax
	jmp *%eax
	.align 2
.globl _ZN13CExoArrayListImED2Ev
	.type _ZN13CExoArrayListImED2Ev, @function
_ZN13CExoArrayListImED2Ev:
	pushl $0
	movl 8(%esp), %eax
	pushl %eax
	mov $0x0805f2e4, %eax
	call *%eax
	addl $8, %esp
	ret
	.align 2
.globl _ZN13CExoArrayListImED1Ev
	.type _ZN13CExoArrayListImED1Ev, @function
_ZN13CExoArrayListImED1Ev:
	pushl $0
	movl 8(%esp), %eax
	pushl %eax
	mov $0x0805f2e4, %eax
	call *%eax
	addl $8, %esp
	ret
	.align 2
.globl _ZN13CExoArrayListImEC2ERKS0_
	.type _ZN13CExoArrayListImEC2ERKS0_, @function
_ZN13CExoArrayListImEC2ERKS0_:
	mov $0x081e9e6c, %eax
	jmp *%eax
	.align 2
.globl _ZN13CExoArrayListImEC1ERKS0_
	.type _ZN13CExoArrayListImEC1ERKS0_, @function
_ZN13CExoArrayListImEC1ERKS0_:
	mov $0x081e9e6c, %eax
	jmp *%eax
	.align 2
.globl _ZN13CExoArrayListImEC2Ei
	.type _ZN13CExoArrayListImEC2Ei, @function
_ZN13CExoArrayListImEC2Ei:
	mov $0x0805f2b0, %eax
	jmp *%eax
	.align 2
.globl _ZN13CExoArrayListImEC1Ei
	.type _ZN13CExoArrayListImEC1Ei, @function
_ZN13CExoArrayListImEC1Ei:
	mov $0x0805f2b0, %eax
	jmp *%eax
	.align 2
.globl _ZN13CExoArrayListItED2Ev
	.type _ZN13CExoArrayListItED2Ev, @function
_ZN13CExoArrayListItED2Ev:
	pushl $0
	movl 8(%esp), %eax
	pushl %eax
	mov $0x0805f278, %eax
	call *%eax
	addl $8, %esp
	ret
	.align 2
.globl _ZN13CExoArrayListItED1Ev
	.type _ZN13CExoArrayListItED1Ev, @function
_ZN13CExoArrayListItED1Ev:
	pushl $0
	movl 8(%esp), %eax
	pushl %eax
	mov $0x0805f278, %eax
	call *%eax
	addl $8, %esp
	ret
	.align 2
.globl _ZN13CExoArrayListItEC2Ei
	.type _ZN13CExoArrayListItEC2Ei, @function
_ZN13CExoArrayListItEC2Ei:
	mov $0x0805f244, %eax
	jmp *%eax
	.align 2
.globl _ZN13CExoArrayListItEC1Ei
	.type _ZN13CExoArrayListItEC1Ei, @function
_ZN13CExoArrayListItEC1Ei:
	mov $0x0805f244, %eax
	jmp *%eax
	.align 2
.globl _ZN13CExoArrayListIyED2Ev
	.type _ZN13CExoArrayListIyED2Ev, @function
_ZN13CExoArrayListIyED2Ev:
	pushl $0
	movl 8(%esp), %eax
	pushl %eax
	mov $0x080833a0, %eax
	call *%eax
	addl $8, %esp
	ret
	.align 2
.globl _ZN13CExoArrayListIyED1Ev
	.type _ZN13CExoArrayListIyED1Ev, @function
_ZN13CExoArrayListIyED1Ev:
	pushl $0
	movl 8(%esp), %eax
	pushl %eax
	mov $0x080833a0, %eax
	call *%eax
	addl $8, %esp
	ret
	.align 2
.globl _ZN13CExoArrayListIyEC2Ei
	.type _ZN13CExoArrayListIyEC2Ei, @function
_ZN13CExoArrayListIyEC2Ei:
	mov $0x0808336c, %eax
	jmp *%eax
	.align 2
.globl _ZN13CExoArrayListIyEC1Ei
	.type _ZN13CExoArrayListIyEC1Ei, @function
_ZN13CExoArrayListIyEC1Ei:
	mov $0x0808336c, %eax
	jmp *%eax
	.align 2
.globl _ZN13CExoArrayListI11CNWSTagNodeED2Ev
	.type _ZN13CExoArrayListI11CNWSTagNodeED2Ev, @function
_ZN13CExoArrayListI11CNWSTagNodeED2Ev:
	pushl $0
	movl 8(%esp), %eax
	pushl %eax
	mov $0x081c1b00, %eax
	call *%eax
	addl $8, %esp
	ret
	.align 2
.globl _ZN13CExoArrayListI11CNWSTagNodeED1Ev
	.type _ZN13CExoArrayListI11CNWSTagNodeED1Ev, @function
_ZN13CExoArrayListI11CNWSTagNodeED1Ev:
	pushl $0
	movl 8(%esp), %eax
	pushl %eax
	mov $0x081c1b00, %eax
	call *%eax
	addl $8, %esp
	ret
	.align 2
.globl _ZN13CExoArrayListI11CNWSTagNodeEC2Ei
	.type _ZN13CExoArrayListI11CNWSTagNodeEC2Ei, @function
_ZN13CExoArrayListI11CNWSTagNodeEC2Ei:
	mov $0x081c1acc, %eax
	jmp *%eax
	.align 2
.globl _ZN13CExoArrayListI11CNWSTagNodeEC1Ei
	.type _ZN13CExoArrayListI11CNWSTagNodeEC1Ei, @function
_ZN13CExoArrayListI11CNWSTagNodeEC1Ei:
	mov $0x081c1acc, %eax
	jmp *%eax
	.align 2
.globl _ZN13CExoArrayListI12CNWSPVPEntryED2Ev
	.type _ZN13CExoArrayListI12CNWSPVPEntryED2Ev, @function
_ZN13CExoArrayListI12CNWSPVPEntryED2Ev:
	pushl $0
	movl 8(%esp), %eax
	pushl %eax
	mov $0x0813f040, %eax
	call *%eax
	addl $8, %esp
	ret
	.align 2
.globl _ZN13CExoArrayListI12CNWSPVPEntryED1Ev
	.type _ZN13CExoArrayListI12CNWSPVPEntryED1Ev, @function
_ZN13CExoArrayListI12CNWSPVPEntryED1Ev:
	pushl $0
	movl 8(%esp), %eax
	pushl %eax
	mov $0x0813f040, %eax
	call *%eax
	addl $8, %esp
	ret
	.align 2
.globl _ZN13CExoArrayListI12CNWSPVPEntryEC2Ei
	.type _ZN13CExoArrayListI12CNWSPVPEntryEC2Ei, @function
_ZN13CExoArrayListI12CNWSPVPEntryEC2Ei:
	mov $0x08113b98, %eax
	jmp *%eax
	.align 2
.globl _ZN13CExoArrayListI12CNWSPVPEntryEC1Ei
	.type _ZN13CExoArrayListI12CNWSPVPEntryEC1Ei, @function
_ZN13CExoArrayListI12CNWSPVPEntryEC1Ei:
	mov $0x08113b98, %eax
	jmp *%eax
	.align 2
.globl _ZN13CExoArrayListI13CNWSScriptVarED2Ev
	.type _ZN13CExoArrayListI13CNWSScriptVarED2Ev, @function
_ZN13CExoArrayListI13CNWSScriptVarED2Ev:
	pushl $0
	movl 8(%esp), %eax
	pushl %eax
	mov $0x081f45e0, %eax
	call *%eax
	addl $8, %esp
	ret
	.align 2
.globl _ZN13CExoArrayListI13CNWSScriptVarED1Ev
	.type _ZN13CExoArrayListI13CNWSScriptVarED1Ev, @function
_ZN13CExoArrayListI13CNWSScriptVarED1Ev:
	pushl $0
	movl 8(%esp), %eax
	pushl %eax
	mov $0x081f45e0, %eax
	call *%eax
	addl $8, %esp
	ret
	.align 2
.globl _ZN13CExoArrayListI13CNWSScriptVarEC2Ei
	.type _ZN13CExoArrayListI13CNWSScriptVarEC2Ei, @function
_ZN13CExoArrayListI13CNWSScriptVarEC2Ei:
	mov $0x080d5a58, %eax
	jmp *%eax
	.align 2
.globl _ZN13CExoArrayListI13CNWSScriptVarEC1Ei
	.type _ZN13CExoArrayListI13CNWSScriptVarEC1Ei, @function
_ZN13CExoArrayListI13CNWSScriptVarEC1Ei:
	mov $0x080d5a58, %eax
	jmp *%eax
	.align 2
.globl _ZN13CExoArrayListI13SJournalEntryED2Ev
	.type _ZN13CExoArrayListI13SJournalEntryED2Ev, @function
_ZN13CExoArrayListI13SJournalEntryED2Ev:
	pushl $0
	movl 8(%esp), %eax
	pushl %eax
	mov $0x081b2b6c, %eax
	call *%eax
	addl $8, %esp
	ret
	.align 2
.globl _ZN13CExoArrayListI13SJournalEntryED1Ev
	.type _ZN13CExoArrayListI13SJournalEntryED1Ev, @function
_ZN13CExoArrayListI13SJournalEntryED1Ev:
	pushl $0
	movl 8(%esp), %eax
	pushl %eax
	mov $0x081b2b6c, %eax
	call *%eax
	addl $8, %esp
	ret
	.align 2
.globl _ZN13CExoArrayListI13SJournalEntryEC2Ei
	.type _ZN13CExoArrayListI13SJournalEntryEC2Ei, @function
_ZN13CExoArrayListI13SJournalEntryEC2Ei:
	mov $0x081b2b38, %eax
	jmp *%eax
	.align 2
.globl _ZN13CExoArrayListI13SJournalEntryEC1Ei
	.type _ZN13CExoArrayListI13SJournalEntryEC1Ei, @function
_ZN13CExoArrayListI13SJournalEntryEC1Ei:
	mov $0x081b2b38, %eax
	jmp *%eax
	.align 2
.globl _ZN13CExoArrayListI15CNWItemPropertyED2Ev
	.type _ZN13CExoArrayListI15CNWItemPropertyED2Ev, @function
_ZN13CExoArrayListI15CNWItemPropertyED2Ev:
	pushl $0
	movl 8(%esp), %eax
	pushl %eax
	mov $0x081a7328, %eax
	call *%eax
	addl $8, %esp
	ret
	.align 2
.globl _ZN13CExoArrayListI15CNWItemPropertyED1Ev
	.type _ZN13CExoArrayListI15CNWItemPropertyED1Ev, @function
_ZN13CExoArrayListI15CNWItemPropertyED1Ev:
	pushl $0
	movl 8(%esp), %eax
	pushl %eax
	mov $0x081a7328, %eax
	call *%eax
	addl $8, %esp
	ret
	.align 2
.globl _ZN13CExoArrayListI15CNWItemPropertyEC2Ei
	.type _ZN13CExoArrayListI15CNWItemPropertyEC2Ei, @function
_ZN13CExoArrayListI15CNWItemPropertyEC2Ei:
	mov $0x081a72f4, %eax
	jmp *%eax
	.align 2
.globl _ZN13CExoArrayListI15CNWItemPropertyEC1Ei
	.type _ZN13CExoArrayListI15CNWItemPropertyEC1Ei, @function
_ZN13CExoArrayListI15CNWItemPropertyEC1Ei:
	mov $0x081a72f4, %eax
	jmp *%eax
	.align 2
.globl _ZN13CExoArrayListI17SGameSpyRoomEntryED2Ev
	.type _ZN13CExoArrayListI17SGameSpyRoomEntryED2Ev, @function
_ZN13CExoArrayListI17SGameSpyRoomEntryED2Ev:
	pushl $0
	movl 8(%esp), %eax
	pushl %eax
	mov $0x08272d8c, %eax
	call *%eax
	addl $8, %esp
	ret
	.align 2
.globl _ZN13CExoArrayListI17SGameSpyRoomEntryED1Ev
	.type _ZN13CExoArrayListI17SGameSpyRoomEntryED1Ev, @function
_ZN13CExoArrayListI17SGameSpyRoomEntryED1Ev:
	pushl $0
	movl 8(%esp), %eax
	pushl %eax
	mov $0x08272d8c, %eax
	call *%eax
	addl $8, %esp
	ret
	.align 2
.globl _ZN13CExoArrayListI17SGameSpyRoomEntryEC2Ei
	.type _ZN13CExoArrayListI17SGameSpyRoomEntryEC2Ei, @function
_ZN13CExoArrayListI17SGameSpyRoomEntryEC2Ei:
	mov $0x08272d58, %eax
	jmp *%eax
	.align 2
.globl _ZN13CExoArrayListI17SGameSpyRoomEntryEC1Ei
	.type _ZN13CExoArrayListI17SGameSpyRoomEntryEC1Ei, @function
_ZN13CExoArrayListI17SGameSpyRoomEntryEC1Ei:
	mov $0x08272d58, %eax
	jmp *%eax
	.align 2
.globl _ZN13CExoArrayListI18CWorldJournalEntryED2Ev
	.type _ZN13CExoArrayListI18CWorldJournalEntryED2Ev, @function
_ZN13CExoArrayListI18CWorldJournalEntryED2Ev:
	pushl $0
	movl 8(%esp), %eax
	pushl %eax
	mov $0x081c1b6c, %eax
	call *%eax
	addl $8, %esp
	ret
	.align 2
.globl _ZN13CExoArrayListI18CWorldJournalEntryED1Ev
	.type _ZN13CExoArrayListI18CWorldJournalEntryED1Ev, @function
_ZN13CExoArrayListI18CWorldJournalEntryED1Ev:
	pushl $0
	movl 8(%esp), %eax
	pushl %eax
	mov $0x081c1b6c, %eax
	call *%eax
	addl $8, %esp
	ret
	.align 2
.globl _ZN13CExoArrayListI18CWorldJournalEntryEC2Ei
	.type _ZN13CExoArrayListI18CWorldJournalEntryEC2Ei, @function
_ZN13CExoArrayListI18CWorldJournalEntryEC2Ei:
	mov $0x081c1b38, %eax
	jmp *%eax
	.align 2
.globl _ZN13CExoArrayListI18CWorldJournalEntryEC1Ei
	.type _ZN13CExoArrayListI18CWorldJournalEntryEC1Ei, @function
_ZN13CExoArrayListI18CWorldJournalEntryEC1Ei:
	mov $0x081c1b38, %eax
	jmp *%eax
	.align 2
.globl _ZN13CExoArrayListI21CNWSInvitationDetailsEC2Ei
	.type _ZN13CExoArrayListI21CNWSInvitationDetailsEC2Ei, @function
_ZN13CExoArrayListI21CNWSInvitationDetailsEC2Ei:
	mov $0x08113bcc, %eax
	jmp *%eax
	.align 2
.globl _ZN13CExoArrayListI21CNWSInvitationDetailsEC1Ei
	.type _ZN13CExoArrayListI21CNWSInvitationDetailsEC1Ei, @function
_ZN13CExoArrayListI21CNWSInvitationDetailsEC1Ei:
	mov $0x08113bcc, %eax
	jmp *%eax
	.align 2
.globl _ZN13CExoArrayListI22CNWSPersonalReputationED2Ev
	.type _ZN13CExoArrayListI22CNWSPersonalReputationED2Ev, @function
_ZN13CExoArrayListI22CNWSPersonalReputationED2Ev:
	pushl $0
	movl 8(%esp), %eax
	pushl %eax
	mov $0x0805f0d4, %eax
	call *%eax
	addl $8, %esp
	ret
	.align 2
.globl _ZN13CExoArrayListI22CNWSPersonalReputationED1Ev
	.type _ZN13CExoArrayListI22CNWSPersonalReputationED1Ev, @function
_ZN13CExoArrayListI22CNWSPersonalReputationED1Ev:
	pushl $0
	movl 8(%esp), %eax
	pushl %eax
	mov $0x0805f0d4, %eax
	call *%eax
	addl $8, %esp
	ret
	.align 2
.globl _ZN13CExoArrayListI22CNWSPersonalReputationEC2Ei
	.type _ZN13CExoArrayListI22CNWSPersonalReputationEC2Ei, @function
_ZN13CExoArrayListI22CNWSPersonalReputationEC2Ei:
	mov $0x08060e68, %eax
	jmp *%eax
	.align 2
.globl _ZN13CExoArrayListI22CNWSPersonalReputationEC1Ei
	.type _ZN13CExoArrayListI22CNWSPersonalReputationEC1Ei, @function
_ZN13CExoArrayListI22CNWSPersonalReputationEC1Ei:
	mov $0x08060e68, %eax
	jmp *%eax
	.align 2
.globl _ZN13CExoArrayListI24CNetLayerPlayerCDKeyInfoED2Ev
	.type _ZN13CExoArrayListI24CNetLayerPlayerCDKeyInfoED2Ev, @function
_ZN13CExoArrayListI24CNetLayerPlayerCDKeyInfoED2Ev:
	pushl $0
	movl 8(%esp), %eax
	pushl %eax
	mov $0x082ace64, %eax
	call *%eax
	addl $8, %esp
	ret
	.align 2
.globl _ZN13CExoArrayListI24CNetLayerPlayerCDKeyInfoED1Ev
	.type _ZN13CExoArrayListI24CNetLayerPlayerCDKeyInfoED1Ev, @function
_ZN13CExoArrayListI24CNetLayerPlayerCDKeyInfoED1Ev:
	pushl $0
	movl 8(%esp), %eax
	pushl %eax
	mov $0x082ace64, %eax
	call *%eax
	addl $8, %esp
	ret
	.align 2
.globl _ZN13CExoArrayListI24CNetLayerPlayerCDKeyInfoEC2Ei
	.type _ZN13CExoArrayListI24CNetLayerPlayerCDKeyInfoEC2Ei, @function
_ZN13CExoArrayListI24CNetLayerPlayerCDKeyInfoEC2Ei:
	mov $0x082ace30, %eax
	jmp *%eax
	.align 2
.globl _ZN13CExoArrayListI24CNetLayerPlayerCDKeyInfoEC1Ei
	.type _ZN13CExoArrayListI24CNetLayerPlayerCDKeyInfoEC1Ei, @function
_ZN13CExoArrayListI24CNetLayerPlayerCDKeyInfoEC1Ei:
	mov $0x082ace30, %eax
	jmp *%eax
	.align 2
.globl _ZN13CExoArrayListI26CNWSStats_SpellLikeAbilityED2Ev
	.type _ZN13CExoArrayListI26CNWSStats_SpellLikeAbilityED2Ev, @function
_ZN13CExoArrayListI26CNWSStats_SpellLikeAbilityED2Ev:
	pushl $0
	movl 8(%esp), %eax
	pushl %eax
	mov $0x08165a34, %eax
	call *%eax
	addl $8, %esp
	ret
	.align 2
.globl _ZN13CExoArrayListI26CNWSStats_SpellLikeAbilityED1Ev
	.type _ZN13CExoArrayListI26CNWSStats_SpellLikeAbilityED1Ev, @function
_ZN13CExoArrayListI26CNWSStats_SpellLikeAbilityED1Ev:
	pushl $0
	movl 8(%esp), %eax
	pushl %eax
	mov $0x08165a34, %eax
	call *%eax
	addl $8, %esp
	ret
	.align 2
.globl _ZN13CExoArrayListI26CNWSStats_SpellLikeAbilityEC2Ei
	.type _ZN13CExoArrayListI26CNWSStats_SpellLikeAbilityEC2Ei, @function
_ZN13CExoArrayListI26CNWSStats_SpellLikeAbilityEC2Ei:
	mov $0x08082e48, %eax
	jmp *%eax
	.align 2
.globl _ZN13CExoArrayListI26CNWSStats_SpellLikeAbilityEC1Ei
	.type _ZN13CExoArrayListI26CNWSStats_SpellLikeAbilityEC1Ei, @function
_ZN13CExoArrayListI26CNWSStats_SpellLikeAbilityEC1Ei:
	mov $0x08082e48, %eax
	jmp *%eax
	.align 2
.globl _ZN13CExoArrayListI29CNWSPlayerJournalQuestUpdatesED2Ev
	.type _ZN13CExoArrayListI29CNWSPlayerJournalQuestUpdatesED2Ev, @function
_ZN13CExoArrayListI29CNWSPlayerJournalQuestUpdatesED2Ev:
	pushl $0
	movl 8(%esp), %eax
	pushl %eax
	mov $0x0805ef84, %eax
	call *%eax
	addl $8, %esp
	ret
	.align 2
.globl _ZN13CExoArrayListI29CNWSPlayerJournalQuestUpdatesED1Ev
	.type _ZN13CExoArrayListI29CNWSPlayerJournalQuestUpdatesED1Ev, @function
_ZN13CExoArrayListI29CNWSPlayerJournalQuestUpdatesED1Ev:
	pushl $0
	movl 8(%esp), %eax
	pushl %eax
	mov $0x0805ef84, %eax
	call *%eax
	addl $8, %esp
	ret
	.align 2
.globl _ZN13CExoArrayListI29CNWSPlayerJournalQuestUpdatesEC2Ei
	.type _ZN13CExoArrayListI29CNWSPlayerJournalQuestUpdatesEC2Ei, @function
_ZN13CExoArrayListI29CNWSPlayerJournalQuestUpdatesEC2Ei:
	mov $0x0805ef50, %eax
	jmp *%eax
	.align 2
.globl _ZN13CExoArrayListI29CNWSPlayerJournalQuestUpdatesEC1Ei
	.type _ZN13CExoArrayListI29CNWSPlayerJournalQuestUpdatesEC1Ei, @function
_ZN13CExoArrayListI29CNWSPlayerJournalQuestUpdatesEC1Ei:
	mov $0x0805ef50, %eax
	jmp *%eax
	.align 2
.globl _ZN13CExoArrayListI29NWPlayerCharacterListClass_stED2Ev
	.type _ZN13CExoArrayListI29NWPlayerCharacterListClass_stED2Ev, @function
_ZN13CExoArrayListI29NWPlayerCharacterListClass_stED2Ev:
	pushl $0
	movl 8(%esp), %eax
	pushl %eax
	mov $0x08082c7c, %eax
	call *%eax
	addl $8, %esp
	ret
	.align 2
.globl _ZN13CExoArrayListI29NWPlayerCharacterListClass_stED1Ev
	.type _ZN13CExoArrayListI29NWPlayerCharacterListClass_stED1Ev, @function
_ZN13CExoArrayListI29NWPlayerCharacterListClass_stED1Ev:
	pushl $0
	movl 8(%esp), %eax
	pushl %eax
	mov $0x08082c7c, %eax
	call *%eax
	addl $8, %esp
	ret
	.align 2
.globl _ZN13CExoArrayListI29NWPlayerCharacterListClass_stEC2Ei
	.type _ZN13CExoArrayListI29NWPlayerCharacterListClass_stEC2Ei, @function
_ZN13CExoArrayListI29NWPlayerCharacterListClass_stEC2Ei:
	mov $0x08082c48, %eax
	jmp *%eax
	.align 2
.globl _ZN13CExoArrayListI29NWPlayerCharacterListClass_stEC1Ei
	.type _ZN13CExoArrayListI29NWPlayerCharacterListClass_stEC1Ei, @function
_ZN13CExoArrayListI29NWPlayerCharacterListClass_stEC1Ei:
	mov $0x08082c48, %eax
	jmp *%eax
	.align 2
.globl _ZN13CExoArrayListI7CResRefED2Ev
	.type _ZN13CExoArrayListI7CResRefED2Ev, @function
_ZN13CExoArrayListI7CResRefED2Ev:
	pushl $0
	movl 8(%esp), %eax
	pushl %eax
	mov $0x080b1564, %eax
	call *%eax
	addl $8, %esp
	ret
	.align 2
.globl _ZN13CExoArrayListI7CResRefED1Ev
	.type _ZN13CExoArrayListI7CResRefED1Ev, @function
_ZN13CExoArrayListI7CResRefED1Ev:
	pushl $0
	movl 8(%esp), %eax
	pushl %eax
	mov $0x080b1564, %eax
	call *%eax
	addl $8, %esp
	ret
	.align 2
.globl _ZN13CExoArrayListI7CResRefEC2ERKS1_
	.type _ZN13CExoArrayListI7CResRefEC2ERKS1_, @function
_ZN13CExoArrayListI7CResRefEC2ERKS1_:
	mov $0x081e9df0, %eax
	jmp *%eax
	.align 2
.globl _ZN13CExoArrayListI7CResRefEC1ERKS1_
	.type _ZN13CExoArrayListI7CResRefEC1ERKS1_, @function
_ZN13CExoArrayListI7CResRefEC1ERKS1_:
	mov $0x081e9df0, %eax
	jmp *%eax
	.align 2
.globl _ZN13CExoArrayListI7CResRefEC2Ei
	.type _ZN13CExoArrayListI7CResRefEC2Ei, @function
_ZN13CExoArrayListI7CResRefEC2Ei:
	mov $0x080b1530, %eax
	jmp *%eax
	.align 2
.globl _ZN13CExoArrayListI7CResRefEC1Ei
	.type _ZN13CExoArrayListI7CResRefEC1Ei, @function
_ZN13CExoArrayListI7CResRefEC1Ei:
	mov $0x080b1530, %eax
	jmp *%eax
	.align 2
.globl _ZN13CExoArrayListI9CFileInfoED2Ev
	.type _ZN13CExoArrayListI9CFileInfoED2Ev, @function
_ZN13CExoArrayListI9CFileInfoED2Ev:
	pushl $0
	movl 8(%esp), %eax
	pushl %eax
	mov $0x081e86f0, %eax
	call *%eax
	addl $8, %esp
	ret
	.align 2
.globl _ZN13CExoArrayListI9CFileInfoED1Ev
	.type _ZN13CExoArrayListI9CFileInfoED1Ev, @function
_ZN13CExoArrayListI9CFileInfoED1Ev:
	pushl $0
	movl 8(%esp), %eax
	pushl %eax
	mov $0x081e86f0, %eax
	call *%eax
	addl $8, %esp
	ret
	.align 2
.globl _ZN13CExoArrayListI9CFileInfoEC2Ei
	.type _ZN13CExoArrayListI9CFileInfoEC2Ei, @function
_ZN13CExoArrayListI9CFileInfoEC2Ei:
	mov $0x081e86bc, %eax
	jmp *%eax
	.align 2
.globl _ZN13CExoArrayListI9CFileInfoEC1Ei
	.type _ZN13CExoArrayListI9CFileInfoEC1Ei, @function
_ZN13CExoArrayListI9CFileInfoEC1Ei:
	mov $0x081e86bc, %eax
	jmp *%eax
	.align 2
.globl _ZN13CExoArrayListIP10CExoStringED2Ev
	.type _ZN13CExoArrayListIP10CExoStringED2Ev, @function
_ZN13CExoArrayListIP10CExoStringED2Ev:
	pushl $0
	movl 8(%esp), %eax
	pushl %eax
	mov $0x081d64f0, %eax
	call *%eax
	addl $8, %esp
	ret
	.align 2
.globl _ZN13CExoArrayListIP10CExoStringED1Ev
	.type _ZN13CExoArrayListIP10CExoStringED1Ev, @function
_ZN13CExoArrayListIP10CExoStringED1Ev:
	pushl $0
	movl 8(%esp), %eax
	pushl %eax
	mov $0x081d64f0, %eax
	call *%eax
	addl $8, %esp
	ret
	.align 2
.globl _ZN13CExoArrayListIP10CExoStringEC2ERKS2_
	.type _ZN13CExoArrayListIP10CExoStringEC2ERKS2_, @function
_ZN13CExoArrayListIP10CExoStringEC2ERKS2_:
	mov $0x08236d04, %eax
	jmp *%eax
	.align 2
.globl _ZN13CExoArrayListIP10CExoStringEC1ERKS2_
	.type _ZN13CExoArrayListIP10CExoStringEC1ERKS2_, @function
_ZN13CExoArrayListIP10CExoStringEC1ERKS2_:
	mov $0x08236d04, %eax
	jmp *%eax
	.align 2
.globl _ZN13CExoArrayListIP10CExoStringEC2Ei
	.type _ZN13CExoArrayListIP10CExoStringEC2Ei, @function
_ZN13CExoArrayListIP10CExoStringEC2Ei:
	mov $0x081d64bc, %eax
	jmp *%eax
	.align 2
.globl _ZN13CExoArrayListIP10CExoStringEC1Ei
	.type _ZN13CExoArrayListIP10CExoStringEC1Ei, @function
_ZN13CExoArrayListIP10CExoStringEC1Ei:
	mov $0x081d64bc, %eax
	jmp *%eax
	.align 2
.globl _ZN13CExoArrayListIP10CScriptLogED2Ev
	.type _ZN13CExoArrayListIP10CScriptLogED2Ev, @function
_ZN13CExoArrayListIP10CScriptLogED2Ev:
	pushl $0
	movl 8(%esp), %eax
	pushl %eax
	mov $0x08264964, %eax
	call *%eax
	addl $8, %esp
	ret
	.align 2
.globl _ZN13CExoArrayListIP10CScriptLogED1Ev
	.type _ZN13CExoArrayListIP10CScriptLogED1Ev, @function
_ZN13CExoArrayListIP10CScriptLogED1Ev:
	pushl $0
	movl 8(%esp), %eax
	pushl %eax
	mov $0x08264964, %eax
	call *%eax
	addl $8, %esp
	ret
	.align 2
.globl _ZN13CExoArrayListIP10CScriptLogEC2Ei
	.type _ZN13CExoArrayListIP10CScriptLogEC2Ei, @function
_ZN13CExoArrayListIP10CScriptLogEC2Ei:
	mov $0x08264930, %eax
	jmp *%eax
	.align 2
.globl _ZN13CExoArrayListIP10CScriptLogEC1Ei
	.type _ZN13CExoArrayListIP10CScriptLogEC1Ei, @function
_ZN13CExoArrayListIP10CScriptLogEC1Ei:
	mov $0x08264930, %eax
	jmp *%eax
	.align 2
.globl _ZN13CExoArrayListIP10CSpell_AddED2Ev
	.type _ZN13CExoArrayListIP10CSpell_AddED2Ev, @function
_ZN13CExoArrayListIP10CSpell_AddED2Ev:
	pushl $0
	movl 8(%esp), %eax
	pushl %eax
	mov $0x081e49ec, %eax
	call *%eax
	addl $8, %esp
	ret
	.align 2
.globl _ZN13CExoArrayListIP10CSpell_AddED1Ev
	.type _ZN13CExoArrayListIP10CSpell_AddED1Ev, @function
_ZN13CExoArrayListIP10CSpell_AddED1Ev:
	pushl $0
	movl 8(%esp), %eax
	pushl %eax
	mov $0x081e49ec, %eax
	call *%eax
	addl $8, %esp
	ret
	.align 2
.globl _ZN13CExoArrayListIP10CSpell_AddEC2Ei
	.type _ZN13CExoArrayListIP10CSpell_AddEC2Ei, @function
_ZN13CExoArrayListIP10CSpell_AddEC2Ei:
	mov $0x081e49b8, %eax
	jmp *%eax
	.align 2
.globl _ZN13CExoArrayListIP10CSpell_AddEC1Ei
	.type _ZN13CExoArrayListIP10CSpell_AddEC1Ei, @function
_ZN13CExoArrayListIP10CSpell_AddEC1Ei:
	mov $0x081e49b8, %eax
	jmp *%eax
	.align 2
.globl _ZN13CExoArrayListIP11CGameEffectED2Ev
	.type _ZN13CExoArrayListIP11CGameEffectED2Ev, @function
_ZN13CExoArrayListIP11CGameEffectED2Ev:
	pushl $0
	movl 8(%esp), %eax
	pushl %eax
	mov $0x080e55d8, %eax
	call *%eax
	addl $8, %esp
	ret
	.align 2
.globl _ZN13CExoArrayListIP11CGameEffectED1Ev
	.type _ZN13CExoArrayListIP11CGameEffectED1Ev, @function
_ZN13CExoArrayListIP11CGameEffectED1Ev:
	pushl $0
	movl 8(%esp), %eax
	pushl %eax
	mov $0x080e55d8, %eax
	call *%eax
	addl $8, %esp
	ret
	.align 2
.globl _ZN13CExoArrayListIP11CGameEffectEC2ERKS2_
	.type _ZN13CExoArrayListIP11CGameEffectEC2ERKS2_, @function
_ZN13CExoArrayListIP11CGameEffectEC2ERKS2_:
	mov $0x0813f0b0, %eax
	jmp *%eax
	.align 2
.globl _ZN13CExoArrayListIP11CGameEffectEC1ERKS2_
	.type _ZN13CExoArrayListIP11CGameEffectEC1ERKS2_, @function
_ZN13CExoArrayListIP11CGameEffectEC1ERKS2_:
	mov $0x0813f0b0, %eax
	jmp *%eax
	.align 2
.globl _ZN13CExoArrayListIP11CGameEffectEC2Ei
	.type _ZN13CExoArrayListIP11CGameEffectEC2Ei, @function
_ZN13CExoArrayListIP11CGameEffectEC2Ei:
	mov $0x080e55a4, %eax
	jmp *%eax
	.align 2
.globl _ZN13CExoArrayListIP11CGameEffectEC1Ei
	.type _ZN13CExoArrayListIP11CGameEffectEC1Ei, @function
_ZN13CExoArrayListIP11CGameEffectEC1Ei:
	mov $0x080e55a4, %eax
	jmp *%eax
	.align 2
.globl _ZN13CExoArrayListIP11CGameObjectED2Ev
	.type _ZN13CExoArrayListIP11CGameObjectED2Ev, @function
_ZN13CExoArrayListIP11CGameObjectED2Ev:
	pushl $0
	movl 8(%esp), %eax
	pushl %eax
	mov $0x080bd1e0, %eax
	call *%eax
	addl $8, %esp
	ret
	.align 2
.globl _ZN13CExoArrayListIP11CGameObjectED1Ev
	.type _ZN13CExoArrayListIP11CGameObjectED1Ev, @function
_ZN13CExoArrayListIP11CGameObjectED1Ev:
	pushl $0
	movl 8(%esp), %eax
	pushl %eax
	mov $0x080bd1e0, %eax
	call *%eax
	addl $8, %esp
	ret
	.align 2
.globl _ZN13CExoArrayListIP11CGameObjectEC2Ei
	.type _ZN13CExoArrayListIP11CGameObjectEC2Ei, @function
_ZN13CExoArrayListIP11CGameObjectEC2Ei:
	mov $0x080bd1ac, %eax
	jmp *%eax
	.align 2
.globl _ZN13CExoArrayListIP11CGameObjectEC1Ei
	.type _ZN13CExoArrayListIP11CGameObjectEC1Ei, @function
_ZN13CExoArrayListIP11CGameObjectEC1Ei:
	mov $0x080bd1ac, %eax
	jmp *%eax
	.align 2
.globl _ZN13CExoArrayListIP11CNWSFactionED2Ev
	.type _ZN13CExoArrayListIP11CNWSFactionED2Ev, @function
_ZN13CExoArrayListIP11CNWSFactionED2Ev:
	pushl $0
	movl 8(%esp), %eax
	pushl %eax
	mov $0x080babd8, %eax
	call *%eax
	addl $8, %esp
	ret
	.align 2
.globl _ZN13CExoArrayListIP11CNWSFactionED1Ev
	.type _ZN13CExoArrayListIP11CNWSFactionED1Ev, @function
_ZN13CExoArrayListIP11CNWSFactionED1Ev:
	pushl $0
	movl 8(%esp), %eax
	pushl %eax
	mov $0x080babd8, %eax
	call *%eax
	addl $8, %esp
	ret
	.align 2
.globl _ZN13CExoArrayListIP11CNWSFactionEC2Ei
	.type _ZN13CExoArrayListIP11CNWSFactionEC2Ei, @function
_ZN13CExoArrayListIP11CNWSFactionEC2Ei:
	mov $0x080baba4, %eax
	jmp *%eax
	.align 2
.globl _ZN13CExoArrayListIP11CNWSFactionEC1Ei
	.type _ZN13CExoArrayListIP11CNWSFactionEC1Ei, @function
_ZN13CExoArrayListIP11CNWSFactionEC1Ei:
	mov $0x080baba4, %eax
	jmp *%eax
	.align 2
.globl _ZN13CExoArrayListIP12SMstKeyEntryED2Ev
	.type _ZN13CExoArrayListIP12SMstKeyEntryED2Ev, @function
_ZN13CExoArrayListIP12SMstKeyEntryED2Ev:
	pushl $0
	movl 8(%esp), %eax
	pushl %eax
	mov $0x082989a0, %eax
	call *%eax
	addl $8, %esp
	ret
	.align 2
.globl _ZN13CExoArrayListIP12SMstKeyEntryED1Ev
	.type _ZN13CExoArrayListIP12SMstKeyEntryED1Ev, @function
_ZN13CExoArrayListIP12SMstKeyEntryED1Ev:
	pushl $0
	movl 8(%esp), %eax
	pushl %eax
	mov $0x082989a0, %eax
	call *%eax
	addl $8, %esp
	ret
	.align 2
.globl _ZN13CExoArrayListIP12SMstKeyEntryEC2Ei
	.type _ZN13CExoArrayListIP12SMstKeyEntryEC2Ei, @function
_ZN13CExoArrayListIP12SMstKeyEntryEC2Ei:
	mov $0x0829896c, %eax
	jmp *%eax
	.align 2
.globl _ZN13CExoArrayListIP12SMstKeyEntryEC1Ei
	.type _ZN13CExoArrayListIP12SMstKeyEntryEC1Ei, @function
_ZN13CExoArrayListIP12SMstKeyEntryEC1Ei:
	mov $0x0829896c, %eax
	jmp *%eax
	.align 2
.globl _ZN13CExoArrayListIP13CNWLevelStatsED2Ev
	.type _ZN13CExoArrayListIP13CNWLevelStatsED2Ev, @function
_ZN13CExoArrayListIP13CNWLevelStatsED2Ev:
	pushl $0
	movl 8(%esp), %eax
	pushl %eax
	mov $0x0816597c, %eax
	call *%eax
	addl $8, %esp
	ret
	.align 2
.globl _ZN13CExoArrayListIP13CNWLevelStatsED1Ev
	.type _ZN13CExoArrayListIP13CNWLevelStatsED1Ev, @function
_ZN13CExoArrayListIP13CNWLevelStatsED1Ev:
	pushl $0
	movl 8(%esp), %eax
	pushl %eax
	mov $0x0816597c, %eax
	call *%eax
	addl $8, %esp
	ret
	.align 2
.globl _ZN13CExoArrayListIP13CNWLevelStatsEC2Ei
	.type _ZN13CExoArrayListIP13CNWLevelStatsEC2Ei, @function
_ZN13CExoArrayListIP13CNWLevelStatsEC2Ei:
	mov $0x08165948, %eax
	jmp *%eax
	.align 2
.globl _ZN13CExoArrayListIP13CNWLevelStatsEC1Ei
	.type _ZN13CExoArrayListIP13CNWLevelStatsEC1Ei, @function
_ZN13CExoArrayListIP13CNWLevelStatsEC1Ei:
	mov $0x08165948, %eax
	jmp *%eax
	.align 2
.globl _ZN13CExoArrayListIP13CSpell_DeleteED2Ev
	.type _ZN13CExoArrayListIP13CSpell_DeleteED2Ev, @function
_ZN13CExoArrayListIP13CSpell_DeleteED2Ev:
	pushl $0
	movl 8(%esp), %eax
	pushl %eax
	mov $0x081e4980, %eax
	call *%eax
	addl $8, %esp
	ret
	.align 2
.globl _ZN13CExoArrayListIP13CSpell_DeleteED1Ev
	.type _ZN13CExoArrayListIP13CSpell_DeleteED1Ev, @function
_ZN13CExoArrayListIP13CSpell_DeleteED1Ev:
	pushl $0
	movl 8(%esp), %eax
	pushl %eax
	mov $0x081e4980, %eax
	call *%eax
	addl $8, %esp
	ret
	.align 2
.globl _ZN13CExoArrayListIP13CSpell_DeleteEC2Ei
	.type _ZN13CExoArrayListIP13CSpell_DeleteEC2Ei, @function
_ZN13CExoArrayListIP13CSpell_DeleteEC2Ei:
	mov $0x081e494c, %eax
	jmp *%eax
	.align 2
.globl _ZN13CExoArrayListIP13CSpell_DeleteEC1Ei
	.type _ZN13CExoArrayListIP13CSpell_DeleteEC1Ei, @function
_ZN13CExoArrayListIP13CSpell_DeleteEC1Ei:
	mov $0x081e494c, %eax
	jmp *%eax
	.align 2
.globl _ZN13CExoArrayListIP13SCodeBaseDataED2Ev
	.type _ZN13CExoArrayListIP13SCodeBaseDataED2Ev, @function
_ZN13CExoArrayListIP13SCodeBaseDataED2Ev:
	pushl $0
	movl 8(%esp), %eax
	pushl %eax
	mov $0x082db1bc, %eax
	call *%eax
	addl $8, %esp
	ret
	.align 2
.globl _ZN13CExoArrayListIP13SCodeBaseDataED1Ev
	.type _ZN13CExoArrayListIP13SCodeBaseDataED1Ev, @function
_ZN13CExoArrayListIP13SCodeBaseDataED1Ev:
	pushl $0
	movl 8(%esp), %eax
	pushl %eax
	mov $0x082db1bc, %eax
	call *%eax
	addl $8, %esp
	ret
	.align 2
.globl _ZN13CExoArrayListIP13SCodeBaseDataEC2Ei
	.type _ZN13CExoArrayListIP13SCodeBaseDataEC2Ei, @function
_ZN13CExoArrayListIP13SCodeBaseDataEC2Ei:
	mov $0x082db188, %eax
	jmp *%eax
	.align 2
.globl _ZN13CExoArrayListIP13SCodeBaseDataEC1Ei
	.type _ZN13CExoArrayListIP13SCodeBaseDataEC1Ei, @function
_ZN13CExoArrayListIP13SCodeBaseDataEC1Ei:
	mov $0x082db188, %eax
	jmp *%eax
	.align 2
.globl _ZN13CExoArrayListIP13SMstNameEntryED2Ev
	.type _ZN13CExoArrayListIP13SMstNameEntryED2Ev, @function
_ZN13CExoArrayListIP13SMstNameEntryED2Ev:
	pushl $0
	movl 8(%esp), %eax
	pushl %eax
	mov $0x08298a0c, %eax
	call *%eax
	addl $8, %esp
	ret
	.align 2
.globl _ZN13CExoArrayListIP13SMstNameEntryED1Ev
	.type _ZN13CExoArrayListIP13SMstNameEntryED1Ev, @function
_ZN13CExoArrayListIP13SMstNameEntryED1Ev:
	pushl $0
	movl 8(%esp), %eax
	pushl %eax
	mov $0x08298a0c, %eax
	call *%eax
	addl $8, %esp
	ret
	.align 2
.globl _ZN13CExoArrayListIP13SMstNameEntryEC2Ei
	.type _ZN13CExoArrayListIP13SMstNameEntryEC2Ei, @function
_ZN13CExoArrayListIP13SMstNameEntryEC2Ei:
	mov $0x082989d8, %eax
	jmp *%eax
	.align 2
.globl _ZN13CExoArrayListIP13SMstNameEntryEC1Ei
	.type _ZN13CExoArrayListIP13SMstNameEntryEC1Ei, @function
_ZN13CExoArrayListIP13SMstNameEntryEC1Ei:
	mov $0x082989d8, %eax
	jmp *%eax
	.align 2
.globl _ZN13CExoArrayListIP14CNWSExpressionED2Ev
	.type _ZN13CExoArrayListIP14CNWSExpressionED2Ev, @function
_ZN13CExoArrayListIP14CNWSExpressionED2Ev:
	pushl $0
	movl 8(%esp), %eax
	pushl %eax
	mov $0x081d6484, %eax
	call *%eax
	addl $8, %esp
	ret
	.align 2
.globl _ZN13CExoArrayListIP14CNWSExpressionED1Ev
	.type _ZN13CExoArrayListIP14CNWSExpressionED1Ev, @function
_ZN13CExoArrayListIP14CNWSExpressionED1Ev:
	pushl $0
	movl 8(%esp), %eax
	pushl %eax
	mov $0x081d6484, %eax
	call *%eax
	addl $8, %esp
	ret
	.align 2
.globl _ZN13CExoArrayListIP14CNWSExpressionEC2Ei
	.type _ZN13CExoArrayListIP14CNWSExpressionEC2Ei, @function
_ZN13CExoArrayListIP14CNWSExpressionEC2Ei:
	mov $0x081d6450, %eax
	jmp *%eax
	.align 2
.globl _ZN13CExoArrayListIP14CNWSExpressionEC1Ei
	.type _ZN13CExoArrayListIP14CNWSExpressionEC1Ei, @function
_ZN13CExoArrayListIP14CNWSExpressionEC1Ei:
	mov $0x081d6450, %eax
	jmp *%eax
	.align 2
.globl _ZN13CExoArrayListIP14CStoreCustomerED2Ev
	.type _ZN13CExoArrayListIP14CStoreCustomerED2Ev, @function
_ZN13CExoArrayListIP14CStoreCustomerED2Ev:
	pushl $0
	movl 8(%esp), %eax
	pushl %eax
	mov $0x080864c8, %eax
	call *%eax
	addl $8, %esp
	ret
	.align 2
.globl _ZN13CExoArrayListIP14CStoreCustomerED1Ev
	.type _ZN13CExoArrayListIP14CStoreCustomerED1Ev, @function
_ZN13CExoArrayListIP14CStoreCustomerED1Ev:
	pushl $0
	movl 8(%esp), %eax
	pushl %eax
	mov $0x080864c8, %eax
	call *%eax
	addl $8, %esp
	ret
	.align 2
.globl _ZN13CExoArrayListIP14CStoreCustomerEC2Ei
	.type _ZN13CExoArrayListIP14CStoreCustomerEC2Ei, @function
_ZN13CExoArrayListIP14CStoreCustomerEC2Ei:
	mov $0x08086494, %eax
	jmp *%eax
	.align 2
.globl _ZN13CExoArrayListIP14CStoreCustomerEC1Ei
	.type _ZN13CExoArrayListIP14CStoreCustomerEC1Ei, @function
_ZN13CExoArrayListIP14CStoreCustomerEC1Ei:
	mov $0x08086494, %eax
	jmp *%eax
	.align 2
.globl _ZN13CExoArrayListIP14SMstBuddyEntryED2Ev
	.type _ZN13CExoArrayListIP14SMstBuddyEntryED2Ev, @function
_ZN13CExoArrayListIP14SMstBuddyEntryED2Ev:
	pushl $0
	movl 8(%esp), %eax
	pushl %eax
	mov $0x08298a78, %eax
	call *%eax
	addl $8, %esp
	ret
	.align 2
.globl _ZN13CExoArrayListIP14SMstBuddyEntryED1Ev
	.type _ZN13CExoArrayListIP14SMstBuddyEntryED1Ev, @function
_ZN13CExoArrayListIP14SMstBuddyEntryED1Ev:
	pushl $0
	movl 8(%esp), %eax
	pushl %eax
	mov $0x08298a78, %eax
	call *%eax
	addl $8, %esp
	ret
	.align 2
.globl _ZN13CExoArrayListIP14SMstBuddyEntryEC2Ei
	.type _ZN13CExoArrayListIP14SMstBuddyEntryEC2Ei, @function
_ZN13CExoArrayListIP14SMstBuddyEntryEC2Ei:
	mov $0x08298a44, %eax
	jmp *%eax
	.align 2
.globl _ZN13CExoArrayListIP14SMstBuddyEntryEC1Ei
	.type _ZN13CExoArrayListIP14SMstBuddyEntryEC1Ei, @function
_ZN13CExoArrayListIP14SMstBuddyEntryEC1Ei:
	mov $0x08298a44, %eax
	jmp *%eax
	.align 2
.globl _ZN13CExoArrayListIP14SSubNetProfileED2Ev
	.type _ZN13CExoArrayListIP14SSubNetProfileED2Ev, @function
_ZN13CExoArrayListIP14SSubNetProfileED2Ev:
	pushl $0
	movl 8(%esp), %eax
	pushl %eax
	mov $0x080b13f8, %eax
	call *%eax
	addl $8, %esp
	ret
	.align 2
.globl _ZN13CExoArrayListIP14SSubNetProfileED1Ev
	.type _ZN13CExoArrayListIP14SSubNetProfileED1Ev, @function
_ZN13CExoArrayListIP14SSubNetProfileED1Ev:
	pushl $0
	movl 8(%esp), %eax
	pushl %eax
	mov $0x080b13f8, %eax
	call *%eax
	addl $8, %esp
	ret
	.align 2
.globl _ZN13CExoArrayListIP14SSubNetProfileEC2Ei
	.type _ZN13CExoArrayListIP14SSubNetProfileEC2Ei, @function
_ZN13CExoArrayListIP14SSubNetProfileEC2Ei:
	mov $0x080b13c4, %eax
	jmp *%eax
	.align 2
.globl _ZN13CExoArrayListIP14SSubNetProfileEC1Ei
	.type _ZN13CExoArrayListIP14SSubNetProfileEC1Ei, @function
_ZN13CExoArrayListIP14SSubNetProfileEC1Ei:
	mov $0x080b13c4, %eax
	jmp *%eax
	.align 2
.globl _ZN13CExoArrayListIP15CNWSStats_SpellED2Ev
	.type _ZN13CExoArrayListIP15CNWSStats_SpellED2Ev, @function
_ZN13CExoArrayListIP15CNWSStats_SpellED2Ev:
	pushl $0
	movl 8(%esp), %eax
	pushl %eax
	mov $0x08165824, %eax
	call *%eax
	addl $8, %esp
	ret
	.align 2
.globl _ZN13CExoArrayListIP15CNWSStats_SpellED1Ev
	.type _ZN13CExoArrayListIP15CNWSStats_SpellED1Ev, @function
_ZN13CExoArrayListIP15CNWSStats_SpellED1Ev:
	pushl $0
	movl 8(%esp), %eax
	pushl %eax
	mov $0x08165824, %eax
	call *%eax
	addl $8, %esp
	ret
	.align 2
.globl _ZN13CExoArrayListIP15CNWSStats_SpellEC2Ei
	.type _ZN13CExoArrayListIP15CNWSStats_SpellEC2Ei, @function
_ZN13CExoArrayListIP15CNWSStats_SpellEC2Ei:
	mov $0x081657f0, %eax
	jmp *%eax
	.align 2
.globl _ZN13CExoArrayListIP15CNWSStats_SpellEC1Ei
	.type _ZN13CExoArrayListIP15CNWSStats_SpellEC1Ei, @function
_ZN13CExoArrayListIP15CNWSStats_SpellEC1Ei:
	mov $0x081657f0, %eax
	jmp *%eax
	.align 2
.globl _ZN13CExoArrayListIP16CNWCCMessageDataED2Ev
	.type _ZN13CExoArrayListIP16CNWCCMessageDataED2Ev, @function
_ZN13CExoArrayListIP16CNWCCMessageDataED2Ev:
	pushl $0
	movl 8(%esp), %eax
	pushl %eax
	mov $0x080e56b0, %eax
	call *%eax
	addl $8, %esp
	ret
	.align 2
.globl _ZN13CExoArrayListIP16CNWCCMessageDataED1Ev
	.type _ZN13CExoArrayListIP16CNWCCMessageDataED1Ev, @function
_ZN13CExoArrayListIP16CNWCCMessageDataED1Ev:
	pushl $0
	movl 8(%esp), %eax
	pushl %eax
	mov $0x080e56b0, %eax
	call *%eax
	addl $8, %esp
	ret
	.align 2
.globl _ZN13CExoArrayListIP16CNWCCMessageDataEC2Ei
	.type _ZN13CExoArrayListIP16CNWCCMessageDataEC2Ei, @function
_ZN13CExoArrayListIP16CNWCCMessageDataEC2Ei:
	mov $0x080e567c, %eax
	jmp *%eax
	.align 2
.globl _ZN13CExoArrayListIP16CNWCCMessageDataEC1Ei
	.type _ZN13CExoArrayListIP16CNWCCMessageDataEC1Ei, @function
_ZN13CExoArrayListIP16CNWCCMessageDataEC1Ei:
	mov $0x080e567c, %eax
	jmp *%eax
	.align 2
.globl _ZN13CExoArrayListIP16SMstDigiDistInfoED2Ev
	.type _ZN13CExoArrayListIP16SMstDigiDistInfoED2Ev, @function
_ZN13CExoArrayListIP16SMstDigiDistInfoED2Ev:
	pushl $0
	movl 8(%esp), %eax
	pushl %eax
	mov $0x08298ae4, %eax
	call *%eax
	addl $8, %esp
	ret
	.align 2
.globl _ZN13CExoArrayListIP16SMstDigiDistInfoED1Ev
	.type _ZN13CExoArrayListIP16SMstDigiDistInfoED1Ev, @function
_ZN13CExoArrayListIP16SMstDigiDistInfoED1Ev:
	pushl $0
	movl 8(%esp), %eax
	pushl %eax
	mov $0x08298ae4, %eax
	call *%eax
	addl $8, %esp
	ret
	.align 2
.globl _ZN13CExoArrayListIP16SMstDigiDistInfoEC2Ei
	.type _ZN13CExoArrayListIP16SMstDigiDistInfoEC2Ei, @function
_ZN13CExoArrayListIP16SMstDigiDistInfoEC2Ei:
	mov $0x08298ab0, %eax
	jmp *%eax
	.align 2
.globl _ZN13CExoArrayListIP16SMstDigiDistInfoEC1Ei
	.type _ZN13CExoArrayListIP16SMstDigiDistInfoEC1Ei, @function
_ZN13CExoArrayListIP16SMstDigiDistInfoEC1Ei:
	mov $0x08298ab0, %eax
	jmp *%eax
	.align 2
.globl _ZN13CExoArrayListIP17CEffectIconObjectED2Ev
	.type _ZN13CExoArrayListIP17CEffectIconObjectED2Ev, @function
_ZN13CExoArrayListIP17CEffectIconObjectED2Ev:
	pushl $0
	movl 8(%esp), %eax
	pushl %eax
	mov $0x08094814, %eax
	call *%eax
	addl $8, %esp
	ret
	.align 2
.globl _ZN13CExoArrayListIP17CEffectIconObjectED1Ev
	.type _ZN13CExoArrayListIP17CEffectIconObjectED1Ev, @function
_ZN13CExoArrayListIP17CEffectIconObjectED1Ev:
	pushl $0
	movl 8(%esp), %eax
	pushl %eax
	mov $0x08094814, %eax
	call *%eax
	addl $8, %esp
	ret
	.align 2
.globl _ZN13CExoArrayListIP17CEffectIconObjectEC2Ei
	.type _ZN13CExoArrayListIP17CEffectIconObjectEC2Ei, @function
_ZN13CExoArrayListIP17CEffectIconObjectEC2Ei:
	mov $0x080947e0, %eax
	jmp *%eax
	.align 2
.globl _ZN13CExoArrayListIP17CEffectIconObjectEC1Ei
	.type _ZN13CExoArrayListIP17CEffectIconObjectEC1Ei, @function
_ZN13CExoArrayListIP17CEffectIconObjectEC1Ei:
	mov $0x080947e0, %eax
	jmp *%eax
	.align 2
.globl _ZN13CExoArrayListIP17CFeatUseListEntryED2Ev
	.type _ZN13CExoArrayListIP17CFeatUseListEntryED2Ev, @function
_ZN13CExoArrayListIP17CFeatUseListEntryED2Ev:
	pushl $0
	movl 8(%esp), %eax
	pushl %eax
	mov $0x08165910, %eax
	call *%eax
	addl $8, %esp
	ret
	.align 2
.globl _ZN13CExoArrayListIP17CFeatUseListEntryED1Ev
	.type _ZN13CExoArrayListIP17CFeatUseListEntryED1Ev, @function
_ZN13CExoArrayListIP17CFeatUseListEntryED1Ev:
	pushl $0
	movl 8(%esp), %eax
	pushl %eax
	mov $0x08165910, %eax
	call *%eax
	addl $8, %esp
	ret
	.align 2
.globl _ZN13CExoArrayListIP17CFeatUseListEntryEC2Ei
	.type _ZN13CExoArrayListIP17CFeatUseListEntryEC2Ei, @function
_ZN13CExoArrayListIP17CFeatUseListEntryEC2Ei:
	mov $0x081658dc, %eax
	jmp *%eax
	.align 2
.globl _ZN13CExoArrayListIP17CFeatUseListEntryEC1Ei
	.type _ZN13CExoArrayListIP17CFeatUseListEntryEC1Ei, @function
_ZN13CExoArrayListIP17CFeatUseListEntryEC1Ei:
	mov $0x081658dc, %eax
	jmp *%eax
	.align 2
.globl _ZN13CExoArrayListIP17CNWVisibilityNodeED2Ev
	.type _ZN13CExoArrayListIP17CNWVisibilityNodeED2Ev, @function
_ZN13CExoArrayListIP17CNWVisibilityNodeED2Ev:
	pushl $0
	movl 8(%esp), %eax
	pushl %eax
	mov $0x08083268, %eax
	call *%eax
	addl $8, %esp
	ret
	.align 2
.globl _ZN13CExoArrayListIP17CNWVisibilityNodeED1Ev
	.type _ZN13CExoArrayListIP17CNWVisibilityNodeED1Ev, @function
_ZN13CExoArrayListIP17CNWVisibilityNodeED1Ev:
	pushl $0
	movl 8(%esp), %eax
	pushl %eax
	mov $0x08083268, %eax
	call *%eax
	addl $8, %esp
	ret
	.align 2
.globl _ZN13CExoArrayListIP17CNWVisibilityNodeEC2Ei
	.type _ZN13CExoArrayListIP17CNWVisibilityNodeEC2Ei, @function
_ZN13CExoArrayListIP17CNWVisibilityNodeEC2Ei:
	mov $0x08083234, %eax
	jmp *%eax
	.align 2
.globl _ZN13CExoArrayListIP17CNWVisibilityNodeEC1Ei
	.type _ZN13CExoArrayListIP17CNWVisibilityNodeEC1Ei, @function
_ZN13CExoArrayListIP17CNWVisibilityNodeEC1Ei:
	mov $0x08083234, %eax
	jmp *%eax
	.align 2
.globl _ZN13CExoArrayListIP18CNWSExpressionListED2Ev
	.type _ZN13CExoArrayListIP18CNWSExpressionListED2Ev, @function
_ZN13CExoArrayListIP18CNWSExpressionListED2Ev:
	pushl $0
	movl 8(%esp), %eax
	pushl %eax
	mov $0x08240240, %eax
	call *%eax
	addl $8, %esp
	ret
	.align 2
.globl _ZN13CExoArrayListIP18CNWSExpressionListED1Ev
	.type _ZN13CExoArrayListIP18CNWSExpressionListED1Ev, @function
_ZN13CExoArrayListIP18CNWSExpressionListED1Ev:
	pushl $0
	movl 8(%esp), %eax
	pushl %eax
	mov $0x08240240, %eax
	call *%eax
	addl $8, %esp
	ret
	.align 2
.globl _ZN13CExoArrayListIP18CNWSExpressionListEC2Ei
	.type _ZN13CExoArrayListIP18CNWSExpressionListEC2Ei, @function
_ZN13CExoArrayListIP18CNWSExpressionListEC2Ei:
	mov $0x0824020c, %eax
	jmp *%eax
	.align 2
.globl _ZN13CExoArrayListIP18CNWSExpressionListEC1Ei
	.type _ZN13CExoArrayListIP18CNWSExpressionListEC1Ei, @function
_ZN13CExoArrayListIP18CNWSExpressionListEC1Ei:
	mov $0x0824020c, %eax
	jmp *%eax
	.align 2
.globl _ZN13CExoArrayListIP18CNWSExpressionNodeED2Ev
	.type _ZN13CExoArrayListIP18CNWSExpressionNodeED2Ev, @function
_ZN13CExoArrayListIP18CNWSExpressionNodeED2Ev:
	pushl $0
	movl 8(%esp), %eax
	pushl %eax
	mov $0x0824032c, %eax
	call *%eax
	addl $8, %esp
	ret
	.align 2
.globl _ZN13CExoArrayListIP18CNWSExpressionNodeED1Ev
	.type _ZN13CExoArrayListIP18CNWSExpressionNodeED1Ev, @function
_ZN13CExoArrayListIP18CNWSExpressionNodeED1Ev:
	pushl $0
	movl 8(%esp), %eax
	pushl %eax
	mov $0x0824032c, %eax
	call *%eax
	addl $8, %esp
	ret
	.align 2
.globl _ZN13CExoArrayListIP18CNWSExpressionNodeEC2Ei
	.type _ZN13CExoArrayListIP18CNWSExpressionNodeEC2Ei, @function
_ZN13CExoArrayListIP18CNWSExpressionNodeEC2Ei:
	mov $0x082402f8, %eax
	jmp *%eax
	.align 2
.globl _ZN13CExoArrayListIP18CNWSExpressionNodeEC1Ei
	.type _ZN13CExoArrayListIP18CNWSExpressionNodeEC1Ei, @function
_ZN13CExoArrayListIP18CNWSExpressionNodeEC1Ei:
	mov $0x082402f8, %eax
	jmp *%eax
	.align 2
.globl _ZN13CExoArrayListIP19CNWSSpellScriptDataED2Ev
	.type _ZN13CExoArrayListIP19CNWSSpellScriptDataED2Ev, @function
_ZN13CExoArrayListIP19CNWSSpellScriptDataED2Ev:
	pushl $0
	movl 8(%esp), %eax
	pushl %eax
	mov $0x080e5644, %eax
	call *%eax
	addl $8, %esp
	ret
	.align 2
.globl _ZN13CExoArrayListIP19CNWSSpellScriptDataED1Ev
	.type _ZN13CExoArrayListIP19CNWSSpellScriptDataED1Ev, @function
_ZN13CExoArrayListIP19CNWSSpellScriptDataED1Ev:
	pushl $0
	movl 8(%esp), %eax
	pushl %eax
	mov $0x080e5644, %eax
	call *%eax
	addl $8, %esp
	ret
	.align 2
.globl _ZN13CExoArrayListIP19CNWSSpellScriptDataEC2Ei
	.type _ZN13CExoArrayListIP19CNWSSpellScriptDataEC2Ei, @function
_ZN13CExoArrayListIP19CNWSSpellScriptDataEC2Ei:
	mov $0x080e5610, %eax
	jmp *%eax
	.align 2
.globl _ZN13CExoArrayListIP19CNWSSpellScriptDataEC1Ei
	.type _ZN13CExoArrayListIP19CNWSSpellScriptDataEC1Ei, @function
_ZN13CExoArrayListIP19CNWSSpellScriptDataEC1Ei:
	mov $0x080e5610, %eax
	jmp *%eax
	.align 2
.globl _ZN13CExoArrayListIP19CVirtualMachineFileED2Ev
	.type _ZN13CExoArrayListIP19CVirtualMachineFileED2Ev, @function
_ZN13CExoArrayListIP19CVirtualMachineFileED2Ev:
	pushl $0
	movl 8(%esp), %eax
	pushl %eax
	mov $0x082647ac, %eax
	call *%eax
	addl $8, %esp
	ret
	.align 2
.globl _ZN13CExoArrayListIP19CVirtualMachineFileED1Ev
	.type _ZN13CExoArrayListIP19CVirtualMachineFileED1Ev, @function
_ZN13CExoArrayListIP19CVirtualMachineFileED1Ev:
	pushl $0
	movl 8(%esp), %eax
	pushl %eax
	mov $0x082647ac, %eax
	call *%eax
	addl $8, %esp
	ret
	.align 2
.globl _ZN13CExoArrayListIP19CVirtualMachineFileEC2Ei
	.type _ZN13CExoArrayListIP19CVirtualMachineFileEC2Ei, @function
_ZN13CExoArrayListIP19CVirtualMachineFileEC2Ei:
	mov $0x08264778, %eax
	jmp *%eax
	.align 2
.globl _ZN13CExoArrayListIP19CVirtualMachineFileEC1Ei
	.type _ZN13CExoArrayListIP19CVirtualMachineFileEC1Ei, @function
_ZN13CExoArrayListIP19CVirtualMachineFileEC1Ei:
	mov $0x08264778, %eax
	jmp *%eax
	.align 2
.globl _ZN13CExoArrayListIP22CCombatInformationNodeED2Ev
	.type _ZN13CExoArrayListIP22CCombatInformationNodeED2Ev, @function
_ZN13CExoArrayListIP22CCombatInformationNodeED2Ev:
	pushl $0
	movl 8(%esp), %eax
	pushl %eax
	mov $0x080cbc2c, %eax
	call *%eax
	addl $8, %esp
	ret
	.align 2
.globl _ZN13CExoArrayListIP22CCombatInformationNodeED1Ev
	.type _ZN13CExoArrayListIP22CCombatInformationNodeED1Ev, @function
_ZN13CExoArrayListIP22CCombatInformationNodeED1Ev:
	pushl $0
	movl 8(%esp), %eax
	pushl %eax
	mov $0x080cbc2c, %eax
	call *%eax
	addl $8, %esp
	ret
	.align 2
.globl _ZN13CExoArrayListIP22CCombatInformationNodeEC2Ei
	.type _ZN13CExoArrayListIP22CCombatInformationNodeEC2Ei, @function
_ZN13CExoArrayListIP22CCombatInformationNodeEC2Ei:
	mov $0x080cbbf8, %eax
	jmp *%eax
	.align 2
.globl _ZN13CExoArrayListIP22CCombatInformationNodeEC1Ei
	.type _ZN13CExoArrayListIP22CCombatInformationNodeEC1Ei, @function
_ZN13CExoArrayListIP22CCombatInformationNodeEC1Ei:
	mov $0x080cbbf8, %eax
	jmp *%eax
	.align 2
.globl _ZN13CExoArrayListIP26CNWTileSurfaceMeshAABBNodeED2Ev
	.type _ZN13CExoArrayListIP26CNWTileSurfaceMeshAABBNodeED2Ev, @function
_ZN13CExoArrayListIP26CNWTileSurfaceMeshAABBNodeED2Ev:
	pushl $0
	movl 8(%esp), %eax
	pushl %eax
	mov $0x08094404, %eax
	call *%eax
	addl $8, %esp
	ret
	.align 2
.globl _ZN13CExoArrayListIP26CNWTileSurfaceMeshAABBNodeED1Ev
	.type _ZN13CExoArrayListIP26CNWTileSurfaceMeshAABBNodeED1Ev, @function
_ZN13CExoArrayListIP26CNWTileSurfaceMeshAABBNodeED1Ev:
	pushl $0
	movl 8(%esp), %eax
	pushl %eax
	mov $0x08094404, %eax
	call *%eax
	addl $8, %esp
	ret
	.align 2
.globl _ZN13CExoArrayListIP26CNWTileSurfaceMeshAABBNodeEC2Ei
	.type _ZN13CExoArrayListIP26CNWTileSurfaceMeshAABBNodeEC2Ei, @function
_ZN13CExoArrayListIP26CNWTileSurfaceMeshAABBNodeEC2Ei:
	mov $0x080943d0, %eax
	jmp *%eax
	.align 2
.globl _ZN13CExoArrayListIP26CNWTileSurfaceMeshAABBNodeEC1Ei
	.type _ZN13CExoArrayListIP26CNWTileSurfaceMeshAABBNodeEC1Ei, @function
_ZN13CExoArrayListIP26CNWTileSurfaceMeshAABBNodeEC1Ei:
	mov $0x080943d0, %eax
	jmp *%eax
	.align 2
.globl _ZN13CExoArrayListIP8CNWSItemED2Ev
	.type _ZN13CExoArrayListIP8CNWSItemED2Ev, @function
_ZN13CExoArrayListIP8CNWSItemED2Ev:
	pushl $0
	movl 8(%esp), %eax
	pushl %eax
	mov $0x08086544, %eax
	call *%eax
	addl $8, %esp
	ret
	.align 2
.globl _ZN13CExoArrayListIP8CNWSItemED1Ev
	.type _ZN13CExoArrayListIP8CNWSItemED1Ev, @function
_ZN13CExoArrayListIP8CNWSItemED1Ev:
	pushl $0
	movl 8(%esp), %eax
	pushl %eax
	mov $0x08086544, %eax
	call *%eax
	addl $8, %esp
	ret
	.align 2
.globl _ZN13CExoArrayListIP8CNWSItemEC2Ei
	.type _ZN13CExoArrayListIP8CNWSItemEC2Ei, @function
_ZN13CExoArrayListIP8CNWSItemEC2Ei:
	mov $0x08086510, %eax
	jmp *%eax
	.align 2
.globl _ZN13CExoArrayListIP8CNWSItemEC1Ei
	.type _ZN13CExoArrayListIP8CNWSItemEC1Ei, @function
_ZN13CExoArrayListIP8CNWSItemEC1Ei:
	mov $0x08086510, %eax
	jmp *%eax
	.align 2
.globl _ZN13CExoArrayListIhED2Ev
	.type _ZN13CExoArrayListIhED2Ev, @function
_ZN13CExoArrayListIhED2Ev:
	pushl $0
	movl 8(%esp), %eax
	pushl %eax
	mov $0x080831a8, %eax
	call *%eax
	addl $8, %esp
	ret
	.align 2
.globl _ZN13CExoArrayListIhED1Ev
	.type _ZN13CExoArrayListIhED1Ev, @function
_ZN13CExoArrayListIhED1Ev:
	pushl $0
	movl 8(%esp), %eax
	pushl %eax
	mov $0x080831a8, %eax
	call *%eax
	addl $8, %esp
	ret
	.align 2
.globl _ZN13CExoArrayListIhEC2Ei
	.type _ZN13CExoArrayListIhEC2Ei, @function
_ZN13CExoArrayListIhEC2Ei:
	mov $0x08083174, %eax
	jmp *%eax
	.align 2
.globl _ZN13CExoArrayListIhEC1Ei
	.type _ZN13CExoArrayListIhEC1Ei, @function
_ZN13CExoArrayListIhEC1Ei:
	mov $0x08083174, %eax
	jmp *%eax
	.align 2
.globl _ZN13CExoArrayListIcED2Ev
	.type _ZN13CExoArrayListIcED2Ev, @function
_ZN13CExoArrayListIcED2Ev:
	pushl $0
	movl 8(%esp), %eax
	pushl %eax
	mov $0x080830e8, %eax
	call *%eax
	addl $8, %esp
	ret
	.align 2
.globl _ZN13CExoArrayListIcED1Ev
	.type _ZN13CExoArrayListIcED1Ev, @function
_ZN13CExoArrayListIcED1Ev:
	pushl $0
	movl 8(%esp), %eax
	pushl %eax
	mov $0x080830e8, %eax
	call *%eax
	addl $8, %esp
	ret
	.align 2
.globl _ZN13CExoArrayListIcEC2Ei
	.type _ZN13CExoArrayListIcEC2Ei, @function
_ZN13CExoArrayListIcEC2Ei:
	mov $0x080830b4, %eax
	jmp *%eax
	.align 2
.globl _ZN13CExoArrayListIcEC1Ei
	.type _ZN13CExoArrayListIcEC1Ei, @function
_ZN13CExoArrayListIcEC1Ei:
	mov $0x080830b4, %eax
	jmp *%eax
	.align 2
.globl _ZN13CExoArrayListIfED2Ev
	.type _ZN13CExoArrayListIfED2Ev, @function
_ZN13CExoArrayListIfED2Ev:
	pushl $0
	movl 8(%esp), %eax
	pushl %eax
	mov $0x08061ba0, %eax
	call *%eax
	addl $8, %esp
	ret
	.align 2
.globl _ZN13CExoArrayListIfED1Ev
	.type _ZN13CExoArrayListIfED1Ev, @function
_ZN13CExoArrayListIfED1Ev:
	pushl $0
	movl 8(%esp), %eax
	pushl %eax
	mov $0x08061ba0, %eax
	call *%eax
	addl $8, %esp
	ret
	.align 2
.globl _ZN13CExoArrayListIfEC2Ei
	.type _ZN13CExoArrayListIfEC2Ei, @function
_ZN13CExoArrayListIfEC2Ei:
	mov $0x08061b6c, %eax
	jmp *%eax
	.align 2
.globl _ZN13CExoArrayListIfEC1Ei
	.type _ZN13CExoArrayListIfEC1Ei, @function
_ZN13CExoArrayListIfEC1Ei:
	mov $0x08061b6c, %eax
	jmp *%eax
	.align 2
.globl _ZN13CExoArrayListIiED2Ev
	.type _ZN13CExoArrayListIiED2Ev, @function
_ZN13CExoArrayListIiED2Ev:
	pushl $0
	movl 8(%esp), %eax
	pushl %eax
	mov $0x08050e7c, %eax
	call *%eax
	addl $8, %esp
	ret
	.align 2
.globl _ZN13CExoArrayListIiED1Ev
	.type _ZN13CExoArrayListIiED1Ev, @function
_ZN13CExoArrayListIiED1Ev:
	pushl $0
	movl 8(%esp), %eax
	pushl %eax
	mov $0x08050e7c, %eax
	call *%eax
	addl $8, %esp
	ret
	.align 2
.globl _ZN13CExoArrayListIiEC2Ei
	.type _ZN13CExoArrayListIiEC2Ei, @function
_ZN13CExoArrayListIiEC2Ei:
	mov $0x08050e48, %eax
	jmp *%eax
	.align 2
.globl _ZN13CExoArrayListIiEC1Ei
	.type _ZN13CExoArrayListIiEC1Ei, @function
_ZN13CExoArrayListIiEC1Ei:
	mov $0x08050e48, %eax
	jmp *%eax
	.align 2
.globl _ZN11CWorldTimerD2Ev
	.type _ZN11CWorldTimerD2Ev, @function
_ZN11CWorldTimerD2Ev:
	pushl $0
	movl 8(%esp), %eax
	pushl %eax
	mov $0x082411c0, %eax
	call *%eax
	addl $8, %esp
	ret
	.align 2
.globl _ZN11CWorldTimerD1Ev
	.type _ZN11CWorldTimerD1Ev, @function
_ZN11CWorldTimerD1Ev:
	pushl $0
	movl 8(%esp), %eax
	pushl %eax
	mov $0x082411c0, %eax
	call *%eax
	addl $8, %esp
	ret
	.align 2
.globl _ZN11CWorldTimerC2Ev
	.type _ZN11CWorldTimerC2Ev, @function
_ZN11CWorldTimerC2Ev:
	mov $0x08241160, %eax
	jmp *%eax
	.align 2
.globl _ZN11CWorldTimerC1Ev
	.type _ZN11CWorldTimerC1Ev, @function
_ZN11CWorldTimerC1Ev:
	mov $0x08241160, %eax
	jmp *%eax
	.align 2
.globl _ZN13CExoAliasListD2Ev
	.type _ZN13CExoAliasListD2Ev, @function
_ZN13CExoAliasListD2Ev:
	pushl $0
	movl 8(%esp), %eax
	pushl %eax
	mov $0x082c9324, %eax
	call *%eax
	addl $8, %esp
	ret
	.align 2
.globl _ZN13CExoAliasListD1Ev
	.type _ZN13CExoAliasListD1Ev, @function
_ZN13CExoAliasListD1Ev:
	pushl $0
	movl 8(%esp), %eax
	pushl %eax
	mov $0x082c9324, %eax
	call *%eax
	addl $8, %esp
	ret
	.align 2
.globl _ZN13CExoAliasListC2Ev
	.type _ZN13CExoAliasListC2Ev, @function
_ZN13CExoAliasListC2Ev:
	mov $0x082c92dc, %eax
	jmp *%eax
	.align 2
.globl _ZN13CExoAliasListC1Ev
	.type _ZN13CExoAliasListC1Ev, @function
_ZN13CExoAliasListC1Ev:
	mov $0x082c92dc, %eax
	jmp *%eax
	.align 2
.globl _ZN16CExoRandInternalD2Ev
	.type _ZN16CExoRandInternalD2Ev, @function
_ZN16CExoRandInternalD2Ev:
	pushl $0
	movl 8(%esp), %eax
	pushl %eax
	mov $0x082d1b24, %eax
	call *%eax
	addl $8, %esp
	ret
	.align 2
.globl _ZN16CExoRandInternalD1Ev
	.type _ZN16CExoRandInternalD1Ev, @function
_ZN16CExoRandInternalD1Ev:
	pushl $0
	movl 8(%esp), %eax
	pushl %eax
	mov $0x082d1b24, %eax
	call *%eax
	addl $8, %esp
	ret
	.align 2
.globl _ZN16CExoRandInternalC2Ev
	.type _ZN16CExoRandInternalC2Ev, @function
_ZN16CExoRandInternalC2Ev:
	mov $0x082d1314, %eax
	jmp *%eax
	.align 2
.globl _ZN16CExoRandInternalC1Ev
	.type _ZN16CExoRandInternalC1Ev, @function
_ZN16CExoRandInternalC1Ev:
	mov $0x082d1314, %eax
	jmp *%eax
	.align 2
.globl _ZN21CExoAliasListInternalD2Ev
	.type _ZN21CExoAliasListInternalD2Ev, @function
_ZN21CExoAliasListInternalD2Ev:
	pushl $0
	movl 8(%esp), %eax
	pushl %eax
	mov $0x082d0720, %eax
	call *%eax
	addl $8, %esp
	ret
	.align 2
.globl _ZN21CExoAliasListInternalD1Ev
	.type _ZN21CExoAliasListInternalD1Ev, @function
_ZN21CExoAliasListInternalD1Ev:
	pushl $0
	movl 8(%esp), %eax
	pushl %eax
	mov $0x082d0720, %eax
	call *%eax
	addl $8, %esp
	ret
	.align 2
.globl _ZN21CExoAliasListInternalC2Ev
	.type _ZN21CExoAliasListInternalC2Ev, @function
_ZN21CExoAliasListInternalC2Ev:
	mov $0x082d06cc, %eax
	jmp *%eax
	.align 2
.globl _ZN21CExoAliasListInternalC1Ev
	.type _ZN21CExoAliasListInternalC1Ev, @function
_ZN21CExoAliasListInternalC1Ev:
	mov $0x082d06cc, %eax
	jmp *%eax
	.align 2
.globl _ZN15CExoNetInternalD2Ev
	.type _ZN15CExoNetInternalD2Ev, @function
_ZN15CExoNetInternalD2Ev:
	pushl $0
	movl 8(%esp), %eax
	pushl %eax
	mov $0x082c7444, %eax
	call *%eax
	addl $8, %esp
	ret
	.align 2
.globl _ZN15CExoNetInternalD1Ev
	.type _ZN15CExoNetInternalD1Ev, @function
_ZN15CExoNetInternalD1Ev:
	pushl $0
	movl 8(%esp), %eax
	pushl %eax
	mov $0x082c7444, %eax
	call *%eax
	addl $8, %esp
	ret
	.align 2
.globl _ZN15CExoNetInternalC2Ev
	.type _ZN15CExoNetInternalC2Ev, @function
_ZN15CExoNetInternalC2Ev:
	mov $0x082c7264, %eax
	jmp *%eax
	.align 2
.globl _ZN15CExoNetInternalC1Ev
	.type _ZN15CExoNetInternalC1Ev, @function
_ZN15CExoNetInternalC1Ev:
	mov $0x082c7264, %eax
	jmp *%eax
	.align 2
.globl _ZN7CExoNetD2Ev
	.type _ZN7CExoNetD2Ev, @function
_ZN7CExoNetD2Ev:
	pushl $0
	movl 8(%esp), %eax
	pushl %eax
	mov $0x082c60d8, %eax
	call *%eax
	addl $8, %esp
	ret
	.align 2
.globl _ZN7CExoNetD1Ev
	.type _ZN7CExoNetD1Ev, @function
_ZN7CExoNetD1Ev:
	pushl $0
	movl 8(%esp), %eax
	pushl %eax
	mov $0x082c60d8, %eax
	call *%eax
	addl $8, %esp
	ret
	.align 2
.globl _ZN7CExoNetC2Ev
	.type _ZN7CExoNetC2Ev, @function
_ZN7CExoNetC2Ev:
	mov $0x082c6090, %eax
	jmp *%eax
	.align 2
.globl _ZN7CExoNetC1Ev
	.type _ZN7CExoNetC1Ev, @function
_ZN7CExoNetC1Ev:
	mov $0x082c6090, %eax
	jmp *%eax
	.align 2
.globl _ZN23CNWSItemPropertyHandlerD2Ev
	.type _ZN23CNWSItemPropertyHandlerD2Ev, @function
_ZN23CNWSItemPropertyHandlerD2Ev:
	pushl $0
	movl 8(%esp), %eax
	pushl %eax
	mov $0x081b01e8, %eax
	call *%eax
	addl $8, %esp
	ret
	.align 2
.globl _ZN23CNWSItemPropertyHandlerD1Ev
	.type _ZN23CNWSItemPropertyHandlerD1Ev, @function
_ZN23CNWSItemPropertyHandlerD1Ev:
	pushl $0
	movl 8(%esp), %eax
	pushl %eax
	mov $0x081b01e8, %eax
	call *%eax
	addl $8, %esp
	ret
	.align 2
.globl _ZN10CExoStringD2Ev
	.type _ZN10CExoStringD2Ev, @function
_ZN10CExoStringD2Ev:
	pushl $0
	movl 8(%esp), %eax
	pushl %eax
	mov $0x082cc138, %eax
	call *%eax
	addl $8, %esp
	ret
	.align 2
.globl _ZN10CExoStringD1Ev
	.type _ZN10CExoStringD1Ev, @function
_ZN10CExoStringD1Ev:
	pushl $0
	movl 8(%esp), %eax
	pushl %eax
	mov $0x082cc138, %eax
	call *%eax
	addl $8, %esp
	ret
	.align 2
.globl _ZN10CExoStringC2Ev
	.type _ZN10CExoStringC2Ev, @function
_ZN10CExoStringC2Ev:
	mov $0x082cbfb4, %eax
	jmp *%eax
	.align 2
.globl _ZN10CExoStringC1Ev
	.type _ZN10CExoStringC1Ev, @function
_ZN10CExoStringC1Ev:
	mov $0x082cbfb4, %eax
	jmp *%eax
	.align 2
.globl _ZN10CExoStringC2EPKc
	.type _ZN10CExoStringC2EPKc, @function
_ZN10CExoStringC2EPKc:
	mov $0x082cbfcc, %eax
	jmp *%eax
	.align 2
.globl _ZN10CExoStringC1EPKc
	.type _ZN10CExoStringC1EPKc, @function
_ZN10CExoStringC1EPKc:
	mov $0x082cbfcc, %eax
	jmp *%eax
	.align 2
.globl _ZN10CExoStringC2EPKci
	.type _ZN10CExoStringC2EPKci, @function
_ZN10CExoStringC2EPKci:
	mov $0x082cc09c, %eax
	jmp *%eax
	.align 2
.globl _ZN10CExoStringC1EPKci
	.type _ZN10CExoStringC1EPKci, @function
_ZN10CExoStringC1EPKci:
	mov $0x082cc09c, %eax
	jmp *%eax
	.align 2
.globl _ZN10CExoStringC2ERKS_
	.type _ZN10CExoStringC2ERKS_, @function
_ZN10CExoStringC2ERKS_:
	mov $0x082cc030, %eax
	jmp *%eax
	.align 2
.globl _ZN10CExoStringC1ERKS_
	.type _ZN10CExoStringC1ERKS_, @function
_ZN10CExoStringC1ERKS_:
	mov $0x082cc030, %eax
	jmp *%eax
	.align 2
.globl _ZN10CExoStringC2Ei
	.type _ZN10CExoStringC2Ei, @function
_ZN10CExoStringC2Ei:
	mov $0x082cc0ec, %eax
	jmp *%eax
	.align 2
.globl _ZN10CExoStringC1Ei
	.type _ZN10CExoStringC1Ei, @function
_ZN10CExoStringC1Ei:
	mov $0x082cc0ec, %eax
	jmp *%eax
	.align 2
.globl _ZN11CGameObjectD2Ev
	.type _ZN11CGameObjectD2Ev, @function
_ZN11CGameObjectD2Ev:
	pushl $0
	movl 8(%esp), %eax
	pushl %eax
	mov $0x080bb388, %eax
	call *%eax
	addl $8, %esp
	ret
	.align 2
.globl _ZN11CGameObjectD1Ev
	.type _ZN11CGameObjectD1Ev, @function
_ZN11CGameObjectD1Ev:
	pushl $0
	movl 8(%esp), %eax
	pushl %eax
	mov $0x080bb388, %eax
	call *%eax
	addl $8, %esp
	ret
	.align 2
.globl _ZN11CGameObjectC2Ehm
	.type _ZN11CGameObjectC2Ehm, @function
_ZN11CGameObjectC2Ehm:
	mov $0x080bb160, %eax
	jmp *%eax
	.align 2
.globl _ZN11CGameObjectC1Ehm
	.type _ZN11CGameObjectC1Ehm, @function
_ZN11CGameObjectC1Ehm:
	mov $0x080bb160, %eax
	jmp *%eax
	.align 2
.globl _ZN10CNWSClientD2Ev
	.type _ZN10CNWSClientD2Ev, @function
_ZN10CNWSClientD2Ev:
	pushl $0
	movl 8(%esp), %eax
	pushl %eax
	mov $0x080dfff0, %eax
	call *%eax
	addl $8, %esp
	ret
	.align 2
.globl _ZN10CNWSClientD1Ev
	.type _ZN10CNWSClientD1Ev, @function
_ZN10CNWSClientD1Ev:
	pushl $0
	movl 8(%esp), %eax
	pushl %eax
	mov $0x080dfff0, %eax
	call *%eax
	addl $8, %esp
	ret
	.align 2
.globl _ZN10CNWSClientC2Em
	.type _ZN10CNWSClientC2Em, @function
_ZN10CNWSClientC2Em:
	mov $0x080dffd4, %eax
	jmp *%eax
	.align 2
.globl _ZN10CNWSClientC1Em
	.type _ZN10CNWSClientC1Em, @function
_ZN10CNWSClientC1Em:
	mov $0x080dffd4, %eax
	jmp *%eax
	.align 2
.globl _ZN17CNWSDungeonMasterD2Ev
	.type _ZN17CNWSDungeonMasterD2Ev, @function
_ZN17CNWSDungeonMasterD2Ev:
	pushl $0
	movl 8(%esp), %eax
	pushl %eax
	mov $0x08166324, %eax
	call *%eax
	addl $8, %esp
	ret
	.align 2
.globl _ZN17CNWSDungeonMasterD1Ev
	.type _ZN17CNWSDungeonMasterD1Ev, @function
_ZN17CNWSDungeonMasterD1Ev:
	pushl $0
	movl 8(%esp), %eax
	pushl %eax
	mov $0x08166324, %eax
	call *%eax
	addl $8, %esp
	ret
	.align 2
.globl _ZN17CNWSDungeonMasterC2Em
	.type _ZN17CNWSDungeonMasterC2Em, @function
_ZN17CNWSDungeonMasterC2Em:
	mov $0x081662c0, %eax
	jmp *%eax
	.align 2
.globl _ZN17CNWSDungeonMasterC1Em
	.type _ZN17CNWSDungeonMasterC1Em, @function
_ZN17CNWSDungeonMasterC1Em:
	mov $0x081662c0, %eax
	jmp *%eax
	.align 2
.globl _ZN12CNWSSysAdminD2Ev
	.type _ZN12CNWSSysAdminD2Ev, @function
_ZN12CNWSSysAdminD2Ev:
	pushl $0
	movl 8(%esp), %eax
	pushl %eax
	mov $0x081ed014, %eax
	call *%eax
	addl $8, %esp
	ret
	.align 2
.globl _ZN12CNWSSysAdminD1Ev
	.type _ZN12CNWSSysAdminD1Ev, @function
_ZN12CNWSSysAdminD1Ev:
	pushl $0
	movl 8(%esp), %eax
	pushl %eax
	mov $0x081ed014, %eax
	call *%eax
	addl $8, %esp
	ret
	.align 2
.globl _ZN12CNWSSysAdminC2Em
	.type _ZN12CNWSSysAdminC2Em, @function
_ZN12CNWSSysAdminC2Em:
	mov $0x081ecff0, %eax
	jmp *%eax
	.align 2
.globl _ZN12CNWSSysAdminC1Em
	.type _ZN12CNWSSysAdminC1Em, @function
_ZN12CNWSSysAdminC1Em:
	mov $0x081ecff0, %eax
	jmp *%eax
	.align 2
.globl _ZN17CExoDebugInternalD2Ev
	.type _ZN17CExoDebugInternalD2Ev, @function
_ZN17CExoDebugInternalD2Ev:
	pushl $0
	movl 8(%esp), %eax
	pushl %eax
	mov $0x082cfb78, %eax
	call *%eax
	addl $8, %esp
	ret
	.align 2
.globl _ZN17CExoDebugInternalD1Ev
	.type _ZN17CExoDebugInternalD1Ev, @function
_ZN17CExoDebugInternalD1Ev:
	pushl $0
	movl 8(%esp), %eax
	pushl %eax
	mov $0x082cfb78, %eax
	call *%eax
	addl $8, %esp
	ret
	.align 2
.globl _ZN17CExoDebugInternalC2Ev
	.type _ZN17CExoDebugInternalC2Ev, @function
_ZN17CExoDebugInternalC2Ev:
	mov $0x082cfb1c, %eax
	jmp *%eax
	.align 2
.globl _ZN17CExoDebugInternalC1Ev
	.type _ZN17CExoDebugInternalC1Ev, @function
_ZN17CExoDebugInternalC1Ev:
	mov $0x082cfb1c, %eax
	jmp *%eax
	.align 2
.globl _ZN9CExoDebugD2Ev
	.type _ZN9CExoDebugD2Ev, @function
_ZN9CExoDebugD2Ev:
	pushl $0
	movl 8(%esp), %eax
	pushl %eax
	mov $0x082c8ff0, %eax
	call *%eax
	addl $8, %esp
	ret
	.align 2
.globl _ZN9CExoDebugD1Ev
	.type _ZN9CExoDebugD1Ev, @function
_ZN9CExoDebugD1Ev:
	pushl $0
	movl 8(%esp), %eax
	pushl %eax
	mov $0x082c8ff0, %eax
	call *%eax
	addl $8, %esp
	ret
	.align 2
.globl _ZN9CExoDebugC2Ev
	.type _ZN9CExoDebugC2Ev, @function
_ZN9CExoDebugC2Ev:
	mov $0x082c8f78, %eax
	jmp *%eax
	.align 2
.globl _ZN9CExoDebugC1Ev
	.type _ZN9CExoDebugC1Ev, @function
_ZN9CExoDebugC1Ev:
	mov $0x082c8f78, %eax
	jmp *%eax
	.align 2
.globl _ZN14CExoFileThreadD2Ev
	.type _ZN14CExoFileThreadD2Ev, @function
_ZN14CExoFileThreadD2Ev:
	pushl $0
	movl 8(%esp), %eax
	pushl %eax
	mov $0x082d056c, %eax
	call *%eax
	addl $8, %esp
	ret
	.align 2
.globl _ZN14CExoFileThreadD1Ev
	.type _ZN14CExoFileThreadD1Ev, @function
_ZN14CExoFileThreadD1Ev:
	pushl $0
	movl 8(%esp), %eax
	pushl %eax
	mov $0x082d056c, %eax
	call *%eax
	addl $8, %esp
	ret
	.align 2
.globl _ZN14CExoFileThreadC2Ev
	.type _ZN14CExoFileThreadC2Ev, @function
_ZN14CExoFileThreadC2Ev:
	mov $0x082cfdbc, %eax
	jmp *%eax
	.align 2
.globl _ZN14CExoFileThreadC1Ev
	.type _ZN14CExoFileThreadC1Ev, @function
_ZN14CExoFileThreadC1Ev:
	mov $0x082cfdbc, %eax
	jmp *%eax
	.align 2
.globl _ZN12CBWCBlowFishD2Ev
	.type _ZN12CBWCBlowFishD2Ev, @function
_ZN12CBWCBlowFishD2Ev:
	pushl $0
	movl 8(%esp), %eax
	pushl %eax
	mov $0x083083b4, %eax
	call *%eax
	addl $8, %esp
	ret
	.align 2
.globl _ZN12CBWCBlowFishD1Ev
	.type _ZN12CBWCBlowFishD1Ev, @function
_ZN12CBWCBlowFishD1Ev:
	pushl $0
	movl 8(%esp), %eax
	pushl %eax
	mov $0x083083b4, %eax
	call *%eax
	addl $8, %esp
	ret
	.align 2
.globl _ZN12CBWCBlowFishC2Ev
	.type _ZN12CBWCBlowFishC2Ev, @function
_ZN12CBWCBlowFishC2Ev:
	mov $0x08308384, %eax
	jmp *%eax
	.align 2
.globl _ZN12CBWCBlowFishC1Ev
	.type _ZN12CBWCBlowFishC1Ev, @function
_ZN12CBWCBlowFishC1Ev:
	mov $0x08308384, %eax
	jmp *%eax
	.align 2
.globl _ZN12CBWCBlowFishC2ERKS_
	.type _ZN12CBWCBlowFishC2ERKS_, @function
_ZN12CBWCBlowFishC2ERKS_:
	mov $0x0830865c, %eax
	jmp *%eax
	.align 2
.globl _ZN12CBWCBlowFishC1ERKS_
	.type _ZN12CBWCBlowFishC1ERKS_, @function
_ZN12CBWCBlowFishC1ERKS_:
	mov $0x0830865c, %eax
	jmp *%eax
	.align 2
.globl _ZN17CNetLayerInternalD2Ev
	.type _ZN17CNetLayerInternalD2Ev, @function
_ZN17CNetLayerInternalD2Ev:
	pushl $0
	movl 8(%esp), %eax
	pushl %eax
	mov $0x082a00ac, %eax
	call *%eax
	addl $8, %esp
	ret
	.align 2
.globl _ZN17CNetLayerInternalD1Ev
	.type _ZN17CNetLayerInternalD1Ev, @function
_ZN17CNetLayerInternalD1Ev:
	pushl $0
	movl 8(%esp), %eax
	pushl %eax
	mov $0x082a00ac, %eax
	call *%eax
	addl $8, %esp
	ret
	.align 2
.globl _ZN17CNetLayerInternalC2Ev
	.type _ZN17CNetLayerInternalC2Ev, @function
_ZN17CNetLayerInternalC2Ev:
	mov $0x0829fc80, %eax
	jmp *%eax
	.align 2
.globl _ZN17CNetLayerInternalC1Ev
	.type _ZN17CNetLayerInternalC1Ev, @function
_ZN17CNetLayerInternalC1Ev:
	mov $0x0829fc80, %eax
	jmp *%eax
	.align 2
.globl _ZN4CResD2Ev
	.type _ZN4CResD2Ev, @function
_ZN4CResD2Ev:
	pushl $0
	movl 8(%esp), %eax
	pushl %eax
	mov $0x082b3668, %eax
	call *%eax
	addl $8, %esp
	ret
	.align 2
.globl _ZN4CResD1Ev
	.type _ZN4CResD1Ev, @function
_ZN4CResD1Ev:
	pushl $0
	movl 8(%esp), %eax
	pushl %eax
	mov $0x082b3668, %eax
	call *%eax
	addl $8, %esp
	ret
	.align 2
.globl _ZN4CResC2Ev
	.type _ZN4CResC2Ev, @function
_ZN4CResC2Ev:
	mov $0x082b35c8, %eax
	jmp *%eax
	.align 2
.globl _ZN4CResC1Ev
	.type _ZN4CResC1Ev, @function
_ZN4CResC1Ev:
	mov $0x082b35c8, %eax
	jmp *%eax
	.align 2
.globl _ZN4CResC2Em
	.type _ZN4CResC2Em, @function
_ZN4CResC2Em:
	mov $0x082b3624, %eax
	jmp *%eax
	.align 2
.globl _ZN4CResC1Em
	.type _ZN4CResC1Em, @function
_ZN4CResC1Em:
	mov $0x082b3624, %eax
	jmp *%eax
	.align 2
.globl _ZN23CExoNetExtendableBufferD2Ev
	.type _ZN23CExoNetExtendableBufferD2Ev, @function
_ZN23CExoNetExtendableBufferD2Ev:
	pushl $0
	movl 8(%esp), %eax
	pushl %eax
	mov $0x082c5a6c, %eax
	call *%eax
	addl $8, %esp
	ret
	.align 2
.globl _ZN23CExoNetExtendableBufferD1Ev
	.type _ZN23CExoNetExtendableBufferD1Ev, @function
_ZN23CExoNetExtendableBufferD1Ev:
	pushl $0
	movl 8(%esp), %eax
	pushl %eax
	mov $0x082c5a6c, %eax
	call *%eax
	addl $8, %esp
	ret
	.align 2
.globl _ZN23CExoNetExtendableBufferC2Ev
	.type _ZN23CExoNetExtendableBufferC2Ev, @function
_ZN23CExoNetExtendableBufferC2Ev:
	mov $0x082c541c, %eax
	jmp *%eax
	.align 2
.globl _ZN23CExoNetExtendableBufferC1Ev
	.type _ZN23CExoNetExtendableBufferC1Ev, @function
_ZN23CExoNetExtendableBufferC1Ev:
	mov $0x082c541c, %eax
	jmp *%eax
	.align 2
.globl _ZN18CExoNetFrameBufferD2Ev
	.type _ZN18CExoNetFrameBufferD2Ev, @function
_ZN18CExoNetFrameBufferD2Ev:
	pushl $0
	movl 8(%esp), %eax
	pushl %eax
	mov $0x082c5e10, %eax
	call *%eax
	addl $8, %esp
	ret
	.align 2
.globl _ZN18CExoNetFrameBufferD1Ev
	.type _ZN18CExoNetFrameBufferD1Ev, @function
_ZN18CExoNetFrameBufferD1Ev:
	pushl $0
	movl 8(%esp), %eax
	pushl %eax
	mov $0x082c5e10, %eax
	call *%eax
	addl $8, %esp
	ret
	.align 2
.globl _ZN18CExoNetFrameBufferC2Ev
	.type _ZN18CExoNetFrameBufferC2Ev, @function
_ZN18CExoNetFrameBufferC2Ev:
	mov $0x082c5db0, %eax
	jmp *%eax
	.align 2
.globl _ZN18CExoNetFrameBufferC1Ev
	.type _ZN18CExoNetFrameBufferC1Ev, @function
_ZN18CExoNetFrameBufferC1Ev:
	mov $0x082c5db0, %eax
	jmp *%eax
	.align 2
.globl _ZN14CGameSpyClientD2Ev
	.type _ZN14CGameSpyClientD2Ev, @function
_ZN14CGameSpyClientD2Ev:
	pushl $0
	movl 8(%esp), %eax
	pushl %eax
	mov $0x08274508, %eax
	call *%eax
	addl $8, %esp
	ret
	.align 2
.globl _ZN14CGameSpyClientD1Ev
	.type _ZN14CGameSpyClientD1Ev, @function
_ZN14CGameSpyClientD1Ev:
	pushl $0
	movl 8(%esp), %eax
	pushl %eax
	mov $0x08274508, %eax
	call *%eax
	addl $8, %esp
	ret
	.align 2
.globl _ZN14CGameSpyClientC2EP14CConnectionLibRiRK10CExoString
	.type _ZN14CGameSpyClientC2EP14CConnectionLibRiRK10CExoString, @function
_ZN14CGameSpyClientC2EP14CConnectionLibRiRK10CExoString:
	mov $0x082730c4, %eax
	jmp *%eax
	.align 2
.globl _ZN14CGameSpyClientC1EP14CConnectionLibRiRK10CExoString
	.type _ZN14CGameSpyClientC1EP14CConnectionLibRiRK10CExoString, @function
_ZN14CGameSpyClientC1EP14CConnectionLibRiRK10CExoString:
	mov $0x082730c4, %eax
	jmp *%eax
	.align 2
.globl _ZN18CNWTileSurfaceMeshD2Ev
	.type _ZN18CNWTileSurfaceMeshD2Ev, @function
_ZN18CNWTileSurfaceMeshD2Ev:
	pushl $0
	movl 8(%esp), %eax
	pushl %eax
	mov $0x0808a558, %eax
	call *%eax
	addl $8, %esp
	ret
	.align 2
.globl _ZN18CNWTileSurfaceMeshD1Ev
	.type _ZN18CNWTileSurfaceMeshD1Ev, @function
_ZN18CNWTileSurfaceMeshD1Ev:
	pushl $0
	movl 8(%esp), %eax
	pushl %eax
	mov $0x0808a558, %eax
	call *%eax
	addl $8, %esp
	ret
	.align 2
.globl _ZN18CNWTileSurfaceMeshC2Ev
	.type _ZN18CNWTileSurfaceMeshC2Ev, @function
_ZN18CNWTileSurfaceMeshC2Ev:
	mov $0x0808a37c, %eax
	jmp *%eax
	.align 2
.globl _ZN18CNWTileSurfaceMeshC1Ev
	.type _ZN18CNWTileSurfaceMeshC1Ev, @function
_ZN18CNWTileSurfaceMeshC1Ev:
	mov $0x0808a37c, %eax
	jmp *%eax
	.align 2
.globl _ZN8CExoBaseD2Ev
	.type _ZN8CExoBaseD2Ev, @function
_ZN8CExoBaseD2Ev:
	pushl $0
	movl 8(%esp), %eax
	pushl %eax
	mov $0x082c8c14, %eax
	call *%eax
	addl $8, %esp
	ret
	.align 2
.globl _ZN8CExoBaseD1Ev
	.type _ZN8CExoBaseD1Ev, @function
_ZN8CExoBaseD1Ev:
	pushl $0
	movl 8(%esp), %eax
	pushl %eax
	mov $0x082c8c14, %eax
	call *%eax
	addl $8, %esp
	ret
	.align 2
.globl _ZN8CExoBaseC2Ev
	.type _ZN8CExoBaseC2Ev, @function
_ZN8CExoBaseC2Ev:
	mov $0x082c8aa8, %eax
	jmp *%eax
	.align 2
.globl _ZN8CExoBaseC1Ev
	.type _ZN8CExoBaseC1Ev, @function
_ZN8CExoBaseC1Ev:
	mov $0x082c8aa8, %eax
	jmp *%eax
	.align 2
.globl _ZN9CNetLayerD2Ev
	.type _ZN9CNetLayerD2Ev, @function
_ZN9CNetLayerD2Ev:
	pushl $0
	movl 8(%esp), %eax
	pushl %eax
	mov $0x082ad038, %eax
	call *%eax
	addl $8, %esp
	ret
	.align 2
.globl _ZN9CNetLayerD1Ev
	.type _ZN9CNetLayerD1Ev, @function
_ZN9CNetLayerD1Ev:
	pushl $0
	movl 8(%esp), %eax
	pushl %eax
	mov $0x082ad038, %eax
	call *%eax
	addl $8, %esp
	ret
	.align 2
.globl _ZN9CNetLayerC2Ev
	.type _ZN9CNetLayerC2Ev, @function
_ZN9CNetLayerC2Ev:
	mov $0x082acff0, %eax
	jmp *%eax
	.align 2
.globl _ZN9CNetLayerC1Ev
	.type _ZN9CNetLayerC1Ev, @function
_ZN9CNetLayerC1Ev:
	mov $0x082acff0, %eax
	jmp *%eax
	.align 2
.globl _ZN20CVirtualMachineCacheD2Ev
	.type _ZN20CVirtualMachineCacheD2Ev, @function
_ZN20CVirtualMachineCacheD2Ev:
	pushl $0
	movl 8(%esp), %eax
	pushl %eax
	mov $0x082640d8, %eax
	call *%eax
	addl $8, %esp
	ret
	.align 2
.globl _ZN20CVirtualMachineCacheD1Ev
	.type _ZN20CVirtualMachineCacheD1Ev, @function
_ZN20CVirtualMachineCacheD1Ev:
	pushl $0
	movl 8(%esp), %eax
	pushl %eax
	mov $0x082640d8, %eax
	call *%eax
	addl $8, %esp
	ret
	.align 2
.globl _ZN14CNWSExpressionD2Ev
	.type _ZN14CNWSExpressionD2Ev, @function
_ZN14CNWSExpressionD2Ev:
	pushl $0
	movl 8(%esp), %eax
	pushl %eax
	mov $0x0823e744, %eax
	call *%eax
	addl $8, %esp
	ret
	.align 2
.globl _ZN14CNWSExpressionD1Ev
	.type _ZN14CNWSExpressionD1Ev, @function
_ZN14CNWSExpressionD1Ev:
	pushl $0
	movl 8(%esp), %eax
	pushl %eax
	mov $0x0823e744, %eax
	call *%eax
	addl $8, %esp
	ret
	.align 2
.globl _ZN14CNWSExpressionC2Ev
	.type _ZN14CNWSExpressionC2Ev, @function
_ZN14CNWSExpressionC2Ev:
	mov $0x08240124, %eax
	jmp *%eax
	.align 2
.globl _ZN14CNWSExpressionC1Ev
	.type _ZN14CNWSExpressionC1Ev, @function
_ZN14CNWSExpressionC1Ev:
	mov $0x08240124, %eax
	jmp *%eax
	.align 2
.globl _ZN22CNWSPlayerLUOInventoryD2Ev
	.type _ZN22CNWSPlayerLUOInventoryD2Ev, @function
_ZN22CNWSPlayerLUOInventoryD2Ev:
	pushl $0
	movl 8(%esp), %eax
	pushl %eax
	mov $0x081e3d38, %eax
	call *%eax
	addl $8, %esp
	ret
	.align 2
.globl _ZN22CNWSPlayerLUOInventoryD1Ev
	.type _ZN22CNWSPlayerLUOInventoryD1Ev, @function
_ZN22CNWSPlayerLUOInventoryD1Ev:
	pushl $0
	movl 8(%esp), %eax
	pushl %eax
	mov $0x081e3d38, %eax
	call *%eax
	addl $8, %esp
	ret
	.align 2
.globl _ZN22CNWSPlayerLUOInventoryC2Ev
	.type _ZN22CNWSPlayerLUOInventoryC2Ev, @function
_ZN22CNWSPlayerLUOInventoryC2Ev:
	mov $0x081e29d8, %eax
	jmp *%eax
	.align 2
.globl _ZN22CNWSPlayerLUOInventoryC1Ev
	.type _ZN22CNWSPlayerLUOInventoryC1Ev, @function
_ZN22CNWSPlayerLUOInventoryC1Ev:
	mov $0x081e29d8, %eax
	jmp *%eax
	.align 2
.globl _ZN13CTwoDimArraysD2Ev
	.type _ZN13CTwoDimArraysD2Ev, @function
_ZN13CTwoDimArraysD2Ev:
	pushl $0
	movl 8(%esp), %eax
	pushl %eax
	mov $0x080b4030, %eax
	call *%eax
	addl $8, %esp
	ret
	.align 2
.globl _ZN13CTwoDimArraysD1Ev
	.type _ZN13CTwoDimArraysD1Ev, @function
_ZN13CTwoDimArraysD1Ev:
	pushl $0
	movl 8(%esp), %eax
	pushl %eax
	mov $0x080b4030, %eax
	call *%eax
	addl $8, %esp
	ret
	.align 2
.globl _ZN13CTwoDimArraysC2Ev
	.type _ZN13CTwoDimArraysC2Ev, @function
_ZN13CTwoDimArraysC2Ev:
	mov $0x080b3c14, %eax
	jmp *%eax
	.align 2
.globl _ZN13CTwoDimArraysC1Ev
	.type _ZN13CTwoDimArraysC1Ev, @function
_ZN13CTwoDimArraysC1Ev:
	mov $0x080b3c14, %eax
	jmp *%eax
	.align 2
.globl _ZN9CTlkTableD2Ev
	.type _ZN9CTlkTableD2Ev, @function
_ZN9CTlkTableD2Ev:
	pushl $0
	movl 8(%esp), %eax
	pushl %eax
	mov $0x082b4220, %eax
	call *%eax
	addl $8, %esp
	ret
	.align 2
.globl _ZN9CTlkTableD1Ev
	.type _ZN9CTlkTableD1Ev, @function
_ZN9CTlkTableD1Ev:
	pushl $0
	movl 8(%esp), %eax
	pushl %eax
	mov $0x082b4220, %eax
	call *%eax
	addl $8, %esp
	ret
	.align 2
.globl _ZN9CTlkTableC2Ev
	.type _ZN9CTlkTableC2Ev, @function
_ZN9CTlkTableC2Ev:
	mov $0x082b6238, %eax
	jmp *%eax
	.align 2
.globl _ZN9CTlkTableC1Ev
	.type _ZN9CTlkTableC1Ev, @function
_ZN9CTlkTableC1Ev:
	mov $0x082b6238, %eax
	jmp *%eax
	.align 2
.globl _ZN16CNWCCMessageDataD2Ev
	.type _ZN16CNWCCMessageDataD2Ev, @function
_ZN16CNWCCMessageDataD2Ev:
	pushl $0
	movl 8(%esp), %eax
	pushl %eax
	mov $0x080c2f88, %eax
	call *%eax
	addl $8, %esp
	ret
	.align 2
.globl _ZN16CNWCCMessageDataD1Ev
	.type _ZN16CNWCCMessageDataD1Ev, @function
_ZN16CNWCCMessageDataD1Ev:
	pushl $0
	movl 8(%esp), %eax
	pushl %eax
	mov $0x080c2f88, %eax
	call *%eax
	addl $8, %esp
	ret
	.align 2
.globl _ZN16CNWCCMessageDataC2Ev
	.type _ZN16CNWCCMessageDataC2Ev, @function
_ZN16CNWCCMessageDataC2Ev:
	mov $0x080c1b6c, %eax
	jmp *%eax
	.align 2
.globl _ZN16CNWCCMessageDataC1Ev
	.type _ZN16CNWCCMessageDataC1Ev, @function
_ZN16CNWCCMessageDataC1Ev:
	mov $0x080c1b6c, %eax
	jmp *%eax
	.align 2
.globl _ZN22CNWCreatureStatsUpdateD2Ev
	.type _ZN22CNWCreatureStatsUpdateD2Ev, @function
_ZN22CNWCreatureStatsUpdateD2Ev:
	pushl $0
	movl 8(%esp), %eax
	pushl %eax
	mov $0x080946d0, %eax
	call *%eax
	addl $8, %esp
	ret
	.align 2
.globl _ZN22CNWCreatureStatsUpdateD1Ev
	.type _ZN22CNWCreatureStatsUpdateD1Ev, @function
_ZN22CNWCreatureStatsUpdateD1Ev:
	pushl $0
	movl 8(%esp), %eax
	pushl %eax
	mov $0x080946d0, %eax
	call *%eax
	addl $8, %esp
	ret
	.align 2
.globl _ZN22CNWCreatureStatsUpdateC2Ev
	.type _ZN22CNWCreatureStatsUpdateC2Ev, @function
_ZN22CNWCreatureStatsUpdateC2Ev:
	mov $0x0809452c, %eax
	jmp *%eax
	.align 2
.globl _ZN22CNWCreatureStatsUpdateC1Ev
	.type _ZN22CNWCreatureStatsUpdateC1Ev, @function
_ZN22CNWCreatureStatsUpdateC1Ev:
	mov $0x0809452c, %eax
	jmp *%eax
	.align 2
.globl _ZN10CNWMessageD2Ev
	.type _ZN10CNWMessageD2Ev, @function
_ZN10CNWMessageD2Ev:
	pushl $0
	movl 8(%esp), %eax
	pushl %eax
	mov $0x080c32c8, %eax
	call *%eax
	addl $8, %esp
	ret
	.align 2
.globl _ZN10CNWMessageD1Ev
	.type _ZN10CNWMessageD1Ev, @function
_ZN10CNWMessageD1Ev:
	pushl $0
	movl 8(%esp), %eax
	pushl %eax
	mov $0x080c32c8, %eax
	call *%eax
	addl $8, %esp
	ret
	.align 2
.globl _ZN10CNWMessageC2Ev
	.type _ZN10CNWMessageC2Ev, @function
_ZN10CNWMessageC2Ev:
	mov $0x080c3224, %eax
	jmp *%eax
	.align 2
.globl _ZN10CNWMessageC1Ev
	.type _ZN10CNWMessageC1Ev, @function
_ZN10CNWMessageC1Ev:
	mov $0x080c3224, %eax
	jmp *%eax
	.align 2
.globl _ZN17CNWTileSetManagerD2Ev
	.type _ZN17CNWTileSetManagerD2Ev, @function
_ZN17CNWTileSetManagerD2Ev:
	pushl $0
	movl 8(%esp), %eax
	pushl %eax
	mov $0x0808892c, %eax
	call *%eax
	addl $8, %esp
	ret
	.align 2
.globl _ZN17CNWTileSetManagerD1Ev
	.type _ZN17CNWTileSetManagerD1Ev, @function
_ZN17CNWTileSetManagerD1Ev:
	pushl $0
	movl 8(%esp), %eax
	pushl %eax
	mov $0x0808892c, %eax
	call *%eax
	addl $8, %esp
	ret
	.align 2
.globl _ZN17CNWTileSetManagerC2Ev
	.type _ZN17CNWTileSetManagerC2Ev, @function
_ZN17CNWTileSetManagerC2Ev:
	mov $0x080888f8, %eax
	jmp *%eax
	.align 2
.globl _ZN17CNWTileSetManagerC1Ev
	.type _ZN17CNWTileSetManagerC1Ev, @function
_ZN17CNWTileSetManagerC1Ev:
	mov $0x080888f8, %eax
	jmp *%eax
	.align 2
.globl _ZN19CNWPlaceMeshManagerD2Ev
	.type _ZN19CNWPlaceMeshManagerD2Ev, @function
_ZN19CNWPlaceMeshManagerD2Ev:
	pushl $0
	movl 8(%esp), %eax
	pushl %eax
	mov $0x080c4588, %eax
	call *%eax
	addl $8, %esp
	ret
	.align 2
.globl _ZN19CNWPlaceMeshManagerD1Ev
	.type _ZN19CNWPlaceMeshManagerD1Ev, @function
_ZN19CNWPlaceMeshManagerD1Ev:
	pushl $0
	movl 8(%esp), %eax
	pushl %eax
	mov $0x080c4588, %eax
	call *%eax
	addl $8, %esp
	ret
	.align 2
.globl _ZN19CNWPlaceMeshManagerC2Ev
	.type _ZN19CNWPlaceMeshManagerC2Ev, @function
_ZN19CNWPlaceMeshManagerC2Ev:
	mov $0x080c4570, %eax
	jmp *%eax
	.align 2
.globl _ZN19CNWPlaceMeshManagerC1Ev
	.type _ZN19CNWPlaceMeshManagerC1Ev, @function
_ZN19CNWPlaceMeshManagerC1Ev:
	mov $0x080c4570, %eax
	jmp *%eax
	.align 2
.globl _ZN18CNWSPlayerStoreGUIC2Ev
	.type _ZN18CNWSPlayerStoreGUIC2Ev, @function
_ZN18CNWSPlayerStoreGUIC2Ev:
	mov $0x0805e4c4, %eax
	jmp *%eax
	.align 2
.globl _ZN18CNWSPlayerStoreGUIC1Ev
	.type _ZN18CNWSPlayerStoreGUIC1Ev, @function
_ZN18CNWSPlayerStoreGUIC1Ev:
	mov $0x0805e4c4, %eax
	jmp *%eax
	.align 2
.globl _ZN8CNWRulesD2Ev
	.type _ZN8CNWRulesD2Ev, @function
_ZN8CNWRulesD2Ev:
	pushl $0
	movl 8(%esp), %eax
	pushl %eax
	mov $0x080c6544, %eax
	call *%eax
	addl $8, %esp
	ret
	.align 2
.globl _ZN8CNWRulesD1Ev
	.type _ZN8CNWRulesD1Ev, @function
_ZN8CNWRulesD1Ev:
	pushl $0
	movl 8(%esp), %eax
	pushl %eax
	mov $0x080c6544, %eax
	call *%eax
	addl $8, %esp
	ret
	.align 2
.globl _ZN8CNWRulesC2Ev
	.type _ZN8CNWRulesC2Ev, @function
_ZN8CNWRulesC2Ev:
	mov $0x080c6188, %eax
	jmp *%eax
	.align 2
.globl _ZN8CNWRulesC1Ev
	.type _ZN8CNWRulesC1Ev, @function
_ZN8CNWRulesC1Ev:
	mov $0x080c6188, %eax
	jmp *%eax
	.align 2
.globl _ZN20CPathfindInformationD2Ev
	.type _ZN20CPathfindInformationD2Ev, @function
_ZN20CPathfindInformationD2Ev:
	pushl $0
	movl 8(%esp), %eax
	pushl %eax
	mov $0x08242378, %eax
	call *%eax
	addl $8, %esp
	ret
	.align 2
.globl _ZN20CPathfindInformationD1Ev
	.type _ZN20CPathfindInformationD1Ev, @function
_ZN20CPathfindInformationD1Ev:
	pushl $0
	movl 8(%esp), %eax
	pushl %eax
	mov $0x08242378, %eax
	call *%eax
	addl $8, %esp
	ret
	.align 2
.globl _ZN20CPathfindInformationC2Ev
	.type _ZN20CPathfindInformationC2Ev, @function
_ZN20CPathfindInformationC2Ev:
	mov $0x08241ba8, %eax
	jmp *%eax
	.align 2
.globl _ZN20CPathfindInformationC1Ev
	.type _ZN20CPathfindInformationC1Ev, @function
_ZN20CPathfindInformationC1Ev:
	mov $0x08241ba8, %eax
	jmp *%eax
	.align 2
.globl _ZN11CGameEffectD2Ev
	.type _ZN11CGameEffectD2Ev, @function
_ZN11CGameEffectD2Ev:
	pushl $0
	movl 8(%esp), %eax
	pushl %eax
	mov $0x0817dfdc, %eax
	call *%eax
	addl $8, %esp
	ret
	.align 2
.globl _ZN11CGameEffectD1Ev
	.type _ZN11CGameEffectD1Ev, @function
_ZN11CGameEffectD1Ev:
	pushl $0
	movl 8(%esp), %eax
	pushl %eax
	mov $0x0817dfdc, %eax
	call *%eax
	addl $8, %esp
	ret
	.align 2
.globl _ZN11CGameEffectC2EPS_i
	.type _ZN11CGameEffectC2EPS_i, @function
_ZN11CGameEffectC2EPS_i:
	mov $0x0817de10, %eax
	jmp *%eax
	.align 2
.globl _ZN11CGameEffectC1EPS_i
	.type _ZN11CGameEffectC1EPS_i, @function
_ZN11CGameEffectC1EPS_i:
	mov $0x0817de10, %eax
	jmp *%eax
	.align 2
.globl _ZN11CGameEffectC2Ei
	.type _ZN11CGameEffectC2Ei, @function
_ZN11CGameEffectC2Ei:
	mov $0x0817dc70, %eax
	jmp *%eax
	.align 2
.globl _ZN11CGameEffectC1Ei
	.type _ZN11CGameEffectC1Ei, @function
_ZN11CGameEffectC1Ei:
	mov $0x0817dc70, %eax
	jmp *%eax
	.align 2
.globl _ZN25CNWVirtualMachineCommandsD2Ev
	.type _ZN25CNWVirtualMachineCommandsD2Ev, @function
_ZN25CNWVirtualMachineCommandsD2Ev:
	pushl $0
	movl 8(%esp), %eax
	pushl %eax
	mov $0x082319e4, %eax
	call *%eax
	addl $8, %esp
	ret
	.align 2
.globl _ZN25CNWVirtualMachineCommandsD1Ev
	.type _ZN25CNWVirtualMachineCommandsD1Ev, @function
_ZN25CNWVirtualMachineCommandsD1Ev:
	pushl $0
	movl 8(%esp), %eax
	pushl %eax
	mov $0x082319e4, %eax
	call *%eax
	addl $8, %esp
	ret
	.align 2
.globl _ZN7CResSETD2Ev
	.type _ZN7CResSETD2Ev, @function
_ZN7CResSETD2Ev:
	pushl $0
	movl 8(%esp), %eax
	pushl %eax
	mov $0x08095694, %eax
	call *%eax
	addl $8, %esp
	ret
	.align 2
.globl _ZN7CResSETD1Ev
	.type _ZN7CResSETD1Ev, @function
_ZN7CResSETD1Ev:
	pushl $0
	movl 8(%esp), %eax
	pushl %eax
	mov $0x08095694, %eax
	call *%eax
	addl $8, %esp
	ret
	.align 2
.globl _ZN7CResSETC2Ev
	.type _ZN7CResSETC2Ev, @function
_ZN7CResSETC2Ev:
	mov $0x08095658, %eax
	jmp *%eax
	.align 2
.globl _ZN7CResSETC1Ev
	.type _ZN7CResSETC1Ev, @function
_ZN7CResSETC1Ev:
	mov $0x08095658, %eax
	jmp *%eax
	.align 2
.globl _ZN12CScriptEventD2Ev
	.type _ZN12CScriptEventD2Ev, @function
_ZN12CScriptEventD2Ev:
	pushl $0
	movl 8(%esp), %eax
	pushl %eax
	mov $0x0806189c, %eax
	call *%eax
	addl $8, %esp
	ret
	.align 2
.globl _ZN12CScriptEventD1Ev
	.type _ZN12CScriptEventD1Ev, @function
_ZN12CScriptEventD1Ev:
	pushl $0
	movl 8(%esp), %eax
	pushl %eax
	mov $0x0806189c, %eax
	call *%eax
	addl $8, %esp
	ret
	.align 2
.globl _ZN12CScriptEventC2Ev
	.type _ZN12CScriptEventC2Ev, @function
_ZN12CScriptEventC2Ev:
	mov $0x080610bc, %eax
	jmp *%eax
	.align 2
.globl _ZN12CScriptEventC1Ev
	.type _ZN12CScriptEventC1Ev, @function
_ZN12CScriptEventC1Ev:
	mov $0x080610bc, %eax
	jmp *%eax
	.align 2
.globl _ZN15CScriptLocationD2Ev
	.type _ZN15CScriptLocationD2Ev, @function
_ZN15CScriptLocationD2Ev:
	pushl $0
	movl 8(%esp), %eax
	pushl %eax
	mov $0x081d4378, %eax
	call *%eax
	addl $8, %esp
	ret
	.align 2
.globl _ZN15CScriptLocationD1Ev
	.type _ZN15CScriptLocationD1Ev, @function
_ZN15CScriptLocationD1Ev:
	pushl $0
	movl 8(%esp), %eax
	pushl %eax
	mov $0x081d4378, %eax
	call *%eax
	addl $8, %esp
	ret
	.align 2
.globl _ZN15CScriptLocationC2Ev
	.type _ZN15CScriptLocationC2Ev, @function
_ZN15CScriptLocationC2Ev:
	mov $0x081d433c, %eax
	jmp *%eax
	.align 2
.globl _ZN15CScriptLocationC1Ev
	.type _ZN15CScriptLocationC1Ev, @function
_ZN15CScriptLocationC1Ev:
	mov $0x081d433c, %eax
	jmp *%eax
	.align 2
.globl _ZN13CScriptTalentD2Ev
	.type _ZN13CScriptTalentD2Ev, @function
_ZN13CScriptTalentD2Ev:
	pushl $0
	movl 8(%esp), %eax
	pushl %eax
	mov $0x081d448c, %eax
	call *%eax
	addl $8, %esp
	ret
	.align 2
.globl _ZN13CScriptTalentD1Ev
	.type _ZN13CScriptTalentD1Ev, @function
_ZN13CScriptTalentD1Ev:
	pushl $0
	movl 8(%esp), %eax
	pushl %eax
	mov $0x081d448c, %eax
	call *%eax
	addl $8, %esp
	ret
	.align 2
.globl _ZN13CScriptTalentC2Ev
	.type _ZN13CScriptTalentC2Ev, @function
_ZN13CScriptTalentC2Ev:
	mov $0x081d445c, %eax
	jmp *%eax
	.align 2
.globl _ZN13CScriptTalentC1Ev
	.type _ZN13CScriptTalentC1Ev, @function
_ZN13CScriptTalentC1Ev:
	mov $0x081d445c, %eax
	jmp *%eax
	.align 2
.globl _ZN7CResTGAD2Ev
	.type _ZN7CResTGAD2Ev, @function
_ZN7CResTGAD2Ev:
	pushl $0
	movl 8(%esp), %eax
	pushl %eax
	mov $0x082bce68, %eax
	call *%eax
	addl $8, %esp
	ret
	.align 2
.globl _ZN7CResTGAD1Ev
	.type _ZN7CResTGAD1Ev, @function
_ZN7CResTGAD1Ev:
	pushl $0
	movl 8(%esp), %eax
	pushl %eax
	mov $0x082bce68, %eax
	call *%eax
	addl $8, %esp
	ret
	.align 2
.globl _ZN7CResTGAC2Ev
	.type _ZN7CResTGAC2Ev, @function
_ZN7CResTGAC2Ev:
	mov $0x082bce00, %eax
	jmp *%eax
	.align 2
.globl _ZN7CResTGAC1Ev
	.type _ZN7CResTGAC1Ev, @function
_ZN7CResTGAC1Ev:
	mov $0x082bce00, %eax
	jmp *%eax
	.align 2
.globl _ZN7CResRefC2Ev
	.type _ZN7CResRefC2Ev, @function
_ZN7CResRefC2Ev:
	mov $0x082b322c, %eax
	jmp *%eax
	.align 2
.globl _ZN7CResRefC1Ev
	.type _ZN7CResRefC1Ev, @function
_ZN7CResRefC1Ev:
	mov $0x082b322c, %eax
	jmp *%eax
	.align 2
.globl _ZN7CResRefC2EPh
	.type _ZN7CResRefC2EPh, @function
_ZN7CResRefC2EPh:
	mov $0x082b327c, %eax
	jmp *%eax
	.align 2
.globl _ZN7CResRefC1EPh
	.type _ZN7CResRefC1EPh, @function
_ZN7CResRefC1EPh:
	mov $0x082b327c, %eax
	jmp *%eax
	.align 2
.globl _ZN7CResRefC2EPhh
	.type _ZN7CResRefC2EPhh, @function
_ZN7CResRefC2EPhh:
	mov $0x082b3298, %eax
	jmp *%eax
	.align 2
.globl _ZN7CResRefC1EPhh
	.type _ZN7CResRefC1EPhh, @function
_ZN7CResRefC1EPhh:
	mov $0x082b3298, %eax
	jmp *%eax
	.align 2
.globl _ZN7CResRefC2EPc
	.type _ZN7CResRefC2EPc, @function
_ZN7CResRefC2EPc:
	mov $0x082b3260, %eax
	jmp *%eax
	.align 2
.globl _ZN7CResRefC1EPc
	.type _ZN7CResRefC1EPc, @function
_ZN7CResRefC1EPc:
	mov $0x082b3260, %eax
	jmp *%eax
	.align 2
.globl _ZN7CResRefC2ERK10CExoString
	.type _ZN7CResRefC2ERK10CExoString, @function
_ZN7CResRefC2ERK10CExoString:
	mov $0x082b3244, %eax
	jmp *%eax
	.align 2
.globl _ZN7CResRefC1ERK10CExoString
	.type _ZN7CResRefC1ERK10CExoString, @function
_ZN7CResRefC1ERK10CExoString:
	mov $0x082b3244, %eax
	jmp *%eax
	.align 2
.globl _ZN15CFactionManagerD2Ev
	.type _ZN15CFactionManagerD2Ev, @function
_ZN15CFactionManagerD2Ev:
	pushl $0
	movl 8(%esp), %eax
	pushl %eax
	mov $0x080ba914, %eax
	call *%eax
	addl $8, %esp
	ret
	.align 2
.globl _ZN15CFactionManagerD1Ev
	.type _ZN15CFactionManagerD1Ev, @function
_ZN15CFactionManagerD1Ev:
	pushl $0
	movl 8(%esp), %eax
	pushl %eax
	mov $0x080ba914, %eax
	call *%eax
	addl $8, %esp
	ret
	.align 2
.globl _ZN15CFactionManagerC2Ev
	.type _ZN15CFactionManagerC2Ev, @function
_ZN15CFactionManagerC2Ev:
	mov $0x080ba898, %eax
	jmp *%eax
	.align 2
.globl _ZN15CFactionManagerC1Ev
	.type _ZN15CFactionManagerC1Ev, @function
_ZN15CFactionManagerC1Ev:
	mov $0x080ba898, %eax
	jmp *%eax
	.align 2
.globl _ZN11CAppManagerD2Ev
	.type _ZN11CAppManagerD2Ev, @function
_ZN11CAppManagerD2Ev:
	pushl $0
	movl 8(%esp), %eax
	pushl %eax
	mov $0x08051510, %eax
	call *%eax
	addl $8, %esp
	ret
	.align 2
.globl _ZN11CAppManagerD1Ev
	.type _ZN11CAppManagerD1Ev, @function
_ZN11CAppManagerD1Ev:
	pushl $0
	movl 8(%esp), %eax
	pushl %eax
	mov $0x08051510, %eax
	call *%eax
	addl $8, %esp
	ret
	.align 2
.globl _ZN11CAppManagerC2Ev
	.type _ZN11CAppManagerC2Ev, @function
_ZN11CAppManagerC2Ev:
	mov $0x0805134c, %eax
	jmp *%eax
	.align 2
.globl _ZN11CAppManagerC1Ev
	.type _ZN11CAppManagerC1Ev, @function
_ZN11CAppManagerC1Ev:
	mov $0x0805134c, %eax
	jmp *%eax
	.align 2
.globl _ZN31CVirtualMachineDebuggerInstanceD2Ev
	.type _ZN31CVirtualMachineDebuggerInstanceD2Ev, @function
_ZN31CVirtualMachineDebuggerInstanceD2Ev:
	pushl $0
	movl 8(%esp), %eax
	pushl %eax
	mov $0x08264df0, %eax
	call *%eax
	addl $8, %esp
	ret
	.align 2
.globl _ZN31CVirtualMachineDebuggerInstanceD1Ev
	.type _ZN31CVirtualMachineDebuggerInstanceD1Ev, @function
_ZN31CVirtualMachineDebuggerInstanceD1Ev:
	pushl $0
	movl 8(%esp), %eax
	pushl %eax
	mov $0x08264df0, %eax
	call *%eax
	addl $8, %esp
	ret
	.align 2
.globl _ZN31CVirtualMachineDebuggerInstanceC2Ev
	.type _ZN31CVirtualMachineDebuggerInstanceC2Ev, @function
_ZN31CVirtualMachineDebuggerInstanceC2Ev:
	mov $0x08264c00, %eax
	jmp *%eax
	.align 2
.globl _ZN31CVirtualMachineDebuggerInstanceC1Ev
	.type _ZN31CVirtualMachineDebuggerInstanceC1Ev, @function
_ZN31CVirtualMachineDebuggerInstanceC1Ev:
	mov $0x08264c00, %eax
	jmp *%eax
	.align 2
.globl _ZN15CVirtualMachineD2Ev
	.type _ZN15CVirtualMachineD2Ev, @function
_ZN15CVirtualMachineD2Ev:
	pushl $0
	movl 8(%esp), %eax
	pushl %eax
	mov $0x0825f9a0, %eax
	call *%eax
	addl $8, %esp
	ret
	.align 2
.globl _ZN15CVirtualMachineD1Ev
	.type _ZN15CVirtualMachineD1Ev, @function
_ZN15CVirtualMachineD1Ev:
	pushl $0
	movl 8(%esp), %eax
	pushl %eax
	mov $0x0825f9a0, %eax
	call *%eax
	addl $8, %esp
	ret
	.align 2
.globl _ZN15CVirtualMachineC2Ev
	.type _ZN15CVirtualMachineC2Ev, @function
_ZN15CVirtualMachineC2Ev:
	mov $0x0825f150, %eax
	jmp *%eax
	.align 2
.globl _ZN15CVirtualMachineC1Ev
	.type _ZN15CVirtualMachineC1Ev, @function
_ZN15CVirtualMachineC1Ev:
	mov $0x0825f150, %eax
	jmp *%eax
	.align 2
.globl _ZN7CBWCMD5D2Ev
	.type _ZN7CBWCMD5D2Ev, @function
_ZN7CBWCMD5D2Ev:
	pushl $0
	movl 8(%esp), %eax
	pushl %eax
	mov $0x08308ecc, %eax
	call *%eax
	addl $8, %esp
	ret
	.align 2
.globl _ZN7CBWCMD5D1Ev
	.type _ZN7CBWCMD5D1Ev, @function
_ZN7CBWCMD5D1Ev:
	pushl $0
	movl 8(%esp), %eax
	pushl %eax
	mov $0x08308ecc, %eax
	call *%eax
	addl $8, %esp
	ret
	.align 2
.globl _ZN7CBWCMD5C2Ev
	.type _ZN7CBWCMD5C2Ev, @function
_ZN7CBWCMD5C2Ev:
	mov $0x08308eb4, %eax
	jmp *%eax
	.align 2
.globl _ZN7CBWCMD5C1Ev
	.type _ZN7CBWCMD5C1Ev, @function
_ZN7CBWCMD5C1Ev:
	mov $0x08308eb4, %eax
	jmp *%eax
	.align 2
.globl _ZN18CNWSScriptVarTableD2Ev
	.type _ZN18CNWSScriptVarTableD2Ev, @function
_ZN18CNWSScriptVarTableD2Ev:
	pushl $0
	movl 8(%esp), %eax
	pushl %eax
	mov $0x081f426c, %eax
	call *%eax
	addl $8, %esp
	ret
	.align 2
.globl _ZN18CNWSScriptVarTableD1Ev
	.type _ZN18CNWSScriptVarTableD1Ev, @function
_ZN18CNWSScriptVarTableD1Ev:
	pushl $0
	movl 8(%esp), %eax
	pushl %eax
	mov $0x081f426c, %eax
	call *%eax
	addl $8, %esp
	ret
	.align 2
.globl _ZN26CVirtualMachineDebugLoaderD2Ev
	.type _ZN26CVirtualMachineDebugLoaderD2Ev, @function
_ZN26CVirtualMachineDebugLoaderD2Ev:
	pushl $0
	movl 8(%esp), %eax
	pushl %eax
	mov $0x08248214, %eax
	call *%eax
	addl $8, %esp
	ret
	.align 2
.globl _ZN26CVirtualMachineDebugLoaderD1Ev
	.type _ZN26CVirtualMachineDebugLoaderD1Ev, @function
_ZN26CVirtualMachineDebugLoaderD1Ev:
	pushl $0
	movl 8(%esp), %eax
	pushl %eax
	mov $0x08248214, %eax
	call *%eax
	addl $8, %esp
	ret
	.align 2
.globl _ZN11CNWSJournalD2Ev
	.type _ZN11CNWSJournalD2Ev, @function
_ZN11CNWSJournalD2Ev:
	pushl $0
	movl 8(%esp), %eax
	pushl %eax
	mov $0x081b25d8, %eax
	call *%eax
	addl $8, %esp
	ret
	.align 2
.globl _ZN11CNWSJournalD1Ev
	.type _ZN11CNWSJournalD1Ev, @function
_ZN11CNWSJournalD1Ev:
	pushl $0
	movl 8(%esp), %eax
	pushl %eax
	mov $0x081b25d8, %eax
	call *%eax
	addl $8, %esp
	ret
	.align 2
.globl _ZN11CNWSJournalC2Ev
	.type _ZN11CNWSJournalC2Ev, @function
_ZN11CNWSJournalC2Ev:
	mov $0x081b25c0, %eax
	jmp *%eax
	.align 2
.globl _ZN11CNWSJournalC1Ev
	.type _ZN11CNWSJournalC1Ev, @function
_ZN11CNWSJournalC1Ev:
	mov $0x081b25c0, %eax
	jmp *%eax
	.align 2
.globl _ZN19CExoCriticalSectionD2Ev
	.type _ZN19CExoCriticalSectionD2Ev, @function
_ZN19CExoCriticalSectionD2Ev:
	pushl $0
	movl 8(%esp), %eax
	pushl %eax
	mov $0x082c8efc, %eax
	call *%eax
	addl $8, %esp
	ret
	.align 2
.globl _ZN19CExoCriticalSectionD1Ev
	.type _ZN19CExoCriticalSectionD1Ev, @function
_ZN19CExoCriticalSectionD1Ev:
	pushl $0
	movl 8(%esp), %eax
	pushl %eax
	mov $0x082c8efc, %eax
	call *%eax
	addl $8, %esp
	ret
	.align 2
.globl _ZN19CExoCriticalSectionC2Ev
	.type _ZN19CExoCriticalSectionC2Ev, @function
_ZN19CExoCriticalSectionC2Ev:
	mov $0x082c8eb4, %eax
	jmp *%eax
	.align 2
.globl _ZN19CExoCriticalSectionC1Ev
	.type _ZN19CExoCriticalSectionC1Ev, @function
_ZN19CExoCriticalSectionC1Ev:
	mov $0x082c8eb4, %eax
	jmp *%eax
	.align 2
.globl _ZN27CExoCriticalSectionInternalD2Ev
	.type _ZN27CExoCriticalSectionInternalD2Ev, @function
_ZN27CExoCriticalSectionInternalD2Ev:
	pushl $0
	movl 8(%esp), %eax
	pushl %eax
	mov $0x082cec70, %eax
	call *%eax
	addl $8, %esp
	ret
	.align 2
.globl _ZN27CExoCriticalSectionInternalD1Ev
	.type _ZN27CExoCriticalSectionInternalD1Ev, @function
_ZN27CExoCriticalSectionInternalD1Ev:
	pushl $0
	movl 8(%esp), %eax
	pushl %eax
	mov $0x082cec70, %eax
	call *%eax
	addl $8, %esp
	ret
	.align 2
.globl _ZN27CExoCriticalSectionInternalC2Ev
	.type _ZN27CExoCriticalSectionInternalC2Ev, @function
_ZN27CExoCriticalSectionInternalC2Ev:
	mov $0x082cec40, %eax
	jmp *%eax
	.align 2
.globl _ZN27CExoCriticalSectionInternalC1Ev
	.type _ZN27CExoCriticalSectionInternalC1Ev, @function
_ZN27CExoCriticalSectionInternalC1Ev:
	mov $0x082cec40, %eax
	jmp *%eax
	.align 2
.globl _ZN8CExoFileD2Ev
	.type _ZN8CExoFileD2Ev, @function
_ZN8CExoFileD2Ev:
	pushl $0
	movl 8(%esp), %eax
	pushl %eax
	mov $0x082c9518, %eax
	call *%eax
	addl $8, %esp
	ret
	.align 2
.globl _ZN8CExoFileD1Ev
	.type _ZN8CExoFileD1Ev, @function
_ZN8CExoFileD1Ev:
	pushl $0
	movl 8(%esp), %eax
	pushl %eax
	mov $0x082c9518, %eax
	call *%eax
	addl $8, %esp
	ret
	.align 2
.globl _ZN8CExoFileC2ERK10CExoStringtS2_
	.type _ZN8CExoFileC2ERK10CExoStringtS2_, @function
_ZN8CExoFileC2ERK10CExoStringtS2_:
	mov $0x082c94c0, %eax
	jmp *%eax
	.align 2
.globl _ZN8CExoFileC1ERK10CExoStringtS2_
	.type _ZN8CExoFileC1ERK10CExoStringtS2_, @function
_ZN8CExoFileC1ERK10CExoStringtS2_:
	mov $0x082c94c0, %eax
	jmp *%eax
	.align 2
.globl _ZN26CScriptCompilerIdListEntryD2Ev
	.type _ZN26CScriptCompilerIdListEntryD2Ev, @function
_ZN26CScriptCompilerIdListEntryD2Ev:
	pushl $0
	movl 8(%esp), %eax
	pushl %eax
	mov $0x082428fc, %eax
	call *%eax
	addl $8, %esp
	ret
	.align 2
.globl _ZN26CScriptCompilerIdListEntryD1Ev
	.type _ZN26CScriptCompilerIdListEntryD1Ev, @function
_ZN26CScriptCompilerIdListEntryD1Ev:
	pushl $0
	movl 8(%esp), %eax
	pushl %eax
	mov $0x082428fc, %eax
	call *%eax
	addl $8, %esp
	ret
	.align 2
.globl _ZN26CScriptCompilerIdListEntryC2Ev
	.type _ZN26CScriptCompilerIdListEntryC2Ev, @function
_ZN26CScriptCompilerIdListEntryC2Ev:
	mov $0x082427ec, %eax
	jmp *%eax
	.align 2
.globl _ZN26CScriptCompilerIdListEntryC1Ev
	.type _ZN26CScriptCompilerIdListEntryC1Ev, @function
_ZN26CScriptCompilerIdListEntryC1Ev:
	mov $0x082427ec, %eax
	jmp *%eax
	.align 2
.globl _ZN32CNWTileSurfaceMeshHashTableEntryC2Ev
	.type _ZN32CNWTileSurfaceMeshHashTableEntryC2Ev, @function
_ZN32CNWTileSurfaceMeshHashTableEntryC2Ev:
	mov $0x08093478, %eax
	jmp *%eax
	.align 2
.globl _ZN32CNWTileSurfaceMeshHashTableEntryC1Ev
	.type _ZN32CNWTileSurfaceMeshHashTableEntryC1Ev, @function
_ZN32CNWTileSurfaceMeshHashTableEntryC1Ev:
	mov $0x08093478, %eax
	jmp *%eax
	.align 2
.globl _ZN11CServerInfoC2Ev
	.type _ZN11CServerInfoC2Ev, @function
_ZN11CServerInfoC2Ev:
	mov $0x080b2cb4, %eax
	jmp *%eax
	.align 2
.globl _ZN11CServerInfoC1Ev
	.type _ZN11CServerInfoC1Ev, @function
_ZN11CServerInfoC1Ev:
	mov $0x080b2cb4, %eax
	jmp *%eax
	.align 2
.globl _ZN12CMstNetLayerD2Ev
	.type _ZN12CMstNetLayerD2Ev, @function
_ZN12CMstNetLayerD2Ev:
	pushl $0
	movl 8(%esp), %eax
	pushl %eax
	mov $0x08297f54, %eax
	call *%eax
	addl $8, %esp
	ret
	.align 2
.globl _ZN12CMstNetLayerD1Ev
	.type _ZN12CMstNetLayerD1Ev, @function
_ZN12CMstNetLayerD1Ev:
	pushl $0
	movl 8(%esp), %eax
	pushl %eax
	mov $0x08297f54, %eax
	call *%eax
	addl $8, %esp
	ret
	.align 2
.globl _ZN12CMstNetLayerC2EP14CConnectionLib
	.type _ZN12CMstNetLayerC2EP14CConnectionLib, @function
_ZN12CMstNetLayerC2EP14CConnectionLib:
	mov $0x082940b4, %eax
	jmp *%eax
	.align 2
.globl _ZN12CMstNetLayerC1EP14CConnectionLib
	.type _ZN12CMstNetLayerC1EP14CConnectionLib, @function
_ZN12CMstNetLayerC1EP14CConnectionLib:
	mov $0x082940b4, %eax
	jmp *%eax
	.align 2
.globl _ZN7CRes2DAD2Ev
	.type _ZN7CRes2DAD2Ev, @function
_ZN7CRes2DAD2Ev:
	pushl $0
	movl 8(%esp), %eax
	pushl %eax
	mov $0x082c52f0, %eax
	call *%eax
	addl $8, %esp
	ret
	.align 2
.globl _ZN7CRes2DAD1Ev
	.type _ZN7CRes2DAD1Ev, @function
_ZN7CRes2DAD1Ev:
	pushl $0
	movl 8(%esp), %eax
	pushl %eax
	mov $0x082c52f0, %eax
	call *%eax
	addl $8, %esp
	ret
	.align 2
.globl _ZN7CRes2DAC2Ev
	.type _ZN7CRes2DAC2Ev, @function
_ZN7CRes2DAC2Ev:
	mov $0x082c52b4, %eax
	jmp *%eax
	.align 2
.globl _ZN7CRes2DAC1Ev
	.type _ZN7CRes2DAC1Ev, @function
_ZN7CRes2DAC1Ev:
	mov $0x082c52b4, %eax
	jmp *%eax
	.align 2
.globl _ZN7CNWTileD2Ev
	.type _ZN7CNWTileD2Ev, @function
_ZN7CNWTileD2Ev:
	pushl $0
	movl 8(%esp), %eax
	pushl %eax
	mov $0x080867ec, %eax
	call *%eax
	addl $8, %esp
	ret
	.align 2
.globl _ZN7CNWTileD1Ev
	.type _ZN7CNWTileD1Ev, @function
_ZN7CNWTileD1Ev:
	pushl $0
	movl 8(%esp), %eax
	pushl %eax
	mov $0x080867ec, %eax
	call *%eax
	addl $8, %esp
	ret
	.align 2
.globl _ZN7CNWTileC2Ev
	.type _ZN7CNWTileC2Ev, @function
_ZN7CNWTileC2Ev:
	mov $0x08086758, %eax
	jmp *%eax
	.align 2
.globl _ZN7CNWTileC1Ev
	.type _ZN7CNWTileC1Ev, @function
_ZN7CNWTileC1Ev:
	mov $0x08086758, %eax
	jmp *%eax
	.align 2
.globl _ZN13CNWSInventoryD2Ev
	.type _ZN13CNWSInventoryD2Ev, @function
_ZN13CNWSInventoryD2Ev:
	pushl $0
	movl 8(%esp), %eax
	pushl %eax
	mov $0x0819ebc4, %eax
	call *%eax
	addl $8, %esp
	ret
	.align 2
.globl _ZN13CNWSInventoryD1Ev
	.type _ZN13CNWSInventoryD1Ev, @function
_ZN13CNWSInventoryD1Ev:
	pushl $0
	movl 8(%esp), %eax
	pushl %eax
	mov $0x0819ebc4, %eax
	call *%eax
	addl $8, %esp
	ret
	.align 2
.globl _ZN13CNWSInventoryC2Ev
	.type _ZN13CNWSInventoryC2Ev, @function
_ZN13CNWSInventoryC2Ev:
	mov $0x0819eb9c, %eax
	jmp *%eax
	.align 2
.globl _ZN13CNWSInventoryC1Ev
	.type _ZN13CNWSInventoryC1Ev, @function
_ZN13CNWSInventoryC1Ev:
	mov $0x0819eb9c, %eax
	jmp *%eax
	.align 2
.globl _ZN14CExoPackedFileD2Ev
	.type _ZN14CExoPackedFileD2Ev, @function
_ZN14CExoPackedFileD2Ev:
	pushl $0
	movl 8(%esp), %eax
	pushl %eax
	mov $0x082c4684, %eax
	call *%eax
	addl $8, %esp
	ret
	.align 2
.globl _ZN14CExoPackedFileD1Ev
	.type _ZN14CExoPackedFileD1Ev, @function
_ZN14CExoPackedFileD1Ev:
	pushl $0
	movl 8(%esp), %eax
	pushl %eax
	mov $0x082c4684, %eax
	call *%eax
	addl $8, %esp
	ret
	.align 2
.globl _ZN14CExoPackedFileC2Ev
	.type _ZN14CExoPackedFileC2Ev, @function
_ZN14CExoPackedFileC2Ev:
	mov $0x082c4654, %eax
	jmp *%eax
	.align 2
.globl _ZN14CExoPackedFileC1Ev
	.type _ZN14CExoPackedFileC1Ev, @function
_ZN14CExoPackedFileC1Ev:
	mov $0x082c4654, %eax
	jmp *%eax
	.align 2
.globl _ZN8CNWClassD2Ev
	.type _ZN8CNWClassD2Ev, @function
_ZN8CNWClassD2Ev:
	pushl $0
	movl 8(%esp), %eax
	pushl %eax
	mov $0x080bd3fc, %eax
	call *%eax
	addl $8, %esp
	ret
	.align 2
.globl _ZN8CNWClassD1Ev
	.type _ZN8CNWClassD1Ev, @function
_ZN8CNWClassD1Ev:
	pushl $0
	movl 8(%esp), %eax
	pushl %eax
	mov $0x080bd3fc, %eax
	call *%eax
	addl $8, %esp
	ret
	.align 2
.globl _ZN8CNWClassC2Ev
	.type _ZN8CNWClassC2Ev, @function
_ZN8CNWClassC2Ev:
	mov $0x080bd26c, %eax
	jmp *%eax
	.align 2
.globl _ZN8CNWClassC1Ev
	.type _ZN8CNWClassC1Ev, @function
_ZN8CNWClassC1Ev:
	mov $0x080bd26c, %eax
	jmp *%eax
	.align 2
.globl _ZN7CNWItemD2Ev
	.type _ZN7CNWItemD2Ev, @function
_ZN7CNWItemD2Ev:
	pushl $0
	movl 8(%esp), %eax
	pushl %eax
	mov $0x080c1acc, %eax
	call *%eax
	addl $8, %esp
	ret
	.align 2
.globl _ZN7CNWItemD1Ev
	.type _ZN7CNWItemD1Ev, @function
_ZN7CNWItemD1Ev:
	pushl $0
	movl 8(%esp), %eax
	pushl %eax
	mov $0x080c1acc, %eax
	call *%eax
	addl $8, %esp
	ret
	.align 2
.globl _ZN7CNWItemC2Ev
	.type _ZN7CNWItemC2Ev, @function
_ZN7CNWItemC2Ev:
	mov $0x080c1aa8, %eax
	jmp *%eax
	.align 2
.globl _ZN7CNWItemC1Ev
	.type _ZN7CNWItemC1Ev, @function
_ZN7CNWItemC1Ev:
	mov $0x080c1aa8, %eax
	jmp *%eax
	.align 2
.globl _ZN16CNWBaseItemArrayD2Ev
	.type _ZN16CNWBaseItemArrayD2Ev, @function
_ZN16CNWBaseItemArrayD2Ev:
	pushl $0
	movl 8(%esp), %eax
	pushl %eax
	mov $0x080c1a00, %eax
	call *%eax
	addl $8, %esp
	ret
	.align 2
.globl _ZN16CNWBaseItemArrayD1Ev
	.type _ZN16CNWBaseItemArrayD1Ev, @function
_ZN16CNWBaseItemArrayD1Ev:
	pushl $0
	movl 8(%esp), %eax
	pushl %eax
	mov $0x080c1a00, %eax
	call *%eax
	addl $8, %esp
	ret
	.align 2
.globl _ZN16CNWBaseItemArrayC2Ev
	.type _ZN16CNWBaseItemArrayC2Ev, @function
_ZN16CNWBaseItemArrayC2Ev:
	mov $0x080c19e8, %eax
	jmp *%eax
	.align 2
.globl _ZN16CNWBaseItemArrayC1Ev
	.type _ZN16CNWBaseItemArrayC1Ev, @function
_ZN16CNWBaseItemArrayC1Ev:
	mov $0x080c19e8, %eax
	jmp *%eax
	.align 2
.globl _ZN4C2DAD2Ev
	.type _ZN4C2DAD2Ev, @function
_ZN4C2DAD2Ev:
	pushl $0
	movl 8(%esp), %eax
	pushl %eax
	mov $0x082bed24, %eax
	call *%eax
	addl $8, %esp
	ret
	.align 2
.globl _ZN4C2DAD1Ev
	.type _ZN4C2DAD1Ev, @function
_ZN4C2DAD1Ev:
	pushl $0
	movl 8(%esp), %eax
	pushl %eax
	mov $0x082bed24, %eax
	call *%eax
	addl $8, %esp
	ret
	.align 2
.globl _ZN4C2DAC2Ev
	.type _ZN4C2DAC2Ev, @function
_ZN4C2DAC2Ev:
	mov $0x082bec80, %eax
	jmp *%eax
	.align 2
.globl _ZN4C2DAC1Ev
	.type _ZN4C2DAC1Ev, @function
_ZN4C2DAC1Ev:
	mov $0x082bec80, %eax
	jmp *%eax
	.align 2
.globl _ZN4C2DAC2E7CResRefi
	.type _ZN4C2DAC2E7CResRefi, @function
_ZN4C2DAC2E7CResRefi:
	mov $0x082bebcc, %eax
	jmp *%eax
	.align 2
.globl _ZN4C2DAC1E7CResRefi
	.type _ZN4C2DAC1E7CResRefi, @function
_ZN4C2DAC1E7CResRefi:
	mov $0x082bebcc, %eax
	jmp *%eax
	.align 2
.globl _ZN17CBWCBlowFishStateD2Ev
	.type _ZN17CBWCBlowFishStateD2Ev, @function
_ZN17CBWCBlowFishStateD2Ev:
	pushl $0
	movl 8(%esp), %eax
	pushl %eax
	mov $0x08307818, %eax
	call *%eax
	addl $8, %esp
	ret
	.align 2
.globl _ZN17CBWCBlowFishStateD1Ev
	.type _ZN17CBWCBlowFishStateD1Ev, @function
_ZN17CBWCBlowFishStateD1Ev:
	pushl $0
	movl 8(%esp), %eax
	pushl %eax
	mov $0x08307818, %eax
	call *%eax
	addl $8, %esp
	ret
	.align 2
.globl _ZN17CBWCBlowFishStateC2E17CBWCBlowFishBlock
	.type _ZN17CBWCBlowFishStateC2E17CBWCBlowFishBlock, @function
_ZN17CBWCBlowFishStateC2E17CBWCBlowFishBlock:
	mov $0x08307910, %eax
	jmp *%eax
	.align 2
.globl _ZN17CBWCBlowFishStateC1E17CBWCBlowFishBlock
	.type _ZN17CBWCBlowFishStateC1E17CBWCBlowFishBlock, @function
_ZN17CBWCBlowFishStateC1E17CBWCBlowFishBlock:
	mov $0x08307910, %eax
	jmp *%eax
	.align 2
.globl _ZN17CBWCBlowFishStateC2ERKS_
	.type _ZN17CBWCBlowFishStateC2ERKS_, @function
_ZN17CBWCBlowFishStateC2ERKS_:
	mov $0x083078ac, %eax
	jmp *%eax
	.align 2
.globl _ZN17CBWCBlowFishStateC1ERKS_
	.type _ZN17CBWCBlowFishStateC1ERKS_, @function
_ZN17CBWCBlowFishStateC1ERKS_:
	mov $0x083078ac, %eax
	jmp *%eax
	.align 2
.globl _ZN7CNWRaceD2Ev
	.type _ZN7CNWRaceD2Ev, @function
_ZN7CNWRaceD2Ev:
	pushl $0
	movl 8(%esp), %eax
	pushl %eax
	mov $0x080c4e04, %eax
	call *%eax
	addl $8, %esp
	ret
	.align 2
.globl _ZN7CNWRaceD1Ev
	.type _ZN7CNWRaceD1Ev, @function
_ZN7CNWRaceD1Ev:
	pushl $0
	movl 8(%esp), %eax
	pushl %eax
	mov $0x080c4e04, %eax
	call *%eax
	addl $8, %esp
	ret
	.align 2
.globl _ZN7CNWRaceC2Ev
	.type _ZN7CNWRaceC2Ev, @function
_ZN7CNWRaceC2Ev:
	mov $0x080c4db0, %eax
	jmp *%eax
	.align 2
.globl _ZN7CNWRaceC1Ev
	.type _ZN7CNWRaceC1Ev, @function
_ZN7CNWRaceC1Ev:
	mov $0x080c4db0, %eax
	jmp *%eax
	.align 2
.globl _ZN10CNWTileSetD2Ev
	.type _ZN10CNWTileSetD2Ev, @function
_ZN10CNWTileSetD2Ev:
	pushl $0
	movl 8(%esp), %eax
	pushl %eax
	mov $0x08089ea0, %eax
	call *%eax
	addl $8, %esp
	ret
	.align 2
.globl _ZN10CNWTileSetD1Ev
	.type _ZN10CNWTileSetD1Ev, @function
_ZN10CNWTileSetD1Ev:
	pushl $0
	movl 8(%esp), %eax
	pushl %eax
	mov $0x08089ea0, %eax
	call *%eax
	addl $8, %esp
	ret
	.align 2
.globl _ZN10CNWTileSetC2E7CResRefi
	.type _ZN10CNWTileSetC2E7CResRefi, @function
_ZN10CNWTileSetC2E7CResRefi:
	mov $0x08088b70, %eax
	jmp *%eax
	.align 2
.globl _ZN10CNWTileSetC1E7CResRefi
	.type _ZN10CNWTileSetC1E7CResRefi, @function
_ZN10CNWTileSetC1E7CResRefi:
	mov $0x08088b70, %eax
	jmp *%eax
	.align 2
.globl _ZN7CResDWKD2Ev
	.type _ZN7CResDWKD2Ev, @function
_ZN7CResDWKD2Ev:
	pushl $0
	movl 8(%esp), %eax
	pushl %eax
	mov $0x082404c8, %eax
	call *%eax
	addl $8, %esp
	ret
	.align 2
.globl _ZN7CResDWKD1Ev
	.type _ZN7CResDWKD1Ev, @function
_ZN7CResDWKD1Ev:
	pushl $0
	movl 8(%esp), %eax
	pushl %eax
	mov $0x082404c8, %eax
	call *%eax
	addl $8, %esp
	ret
	.align 2
.globl _ZN7CResDWKC2Ev
	.type _ZN7CResDWKC2Ev, @function
_ZN7CResDWKC2Ev:
	mov $0x0824048c, %eax
	jmp *%eax
	.align 2
.globl _ZN7CResDWKC1Ev
	.type _ZN7CResDWKC1Ev, @function
_ZN7CResDWKC1Ev:
	mov $0x0824048c, %eax
	jmp *%eax
	.align 2
.globl _ZN19CVirtualMachineFileD2Ev
	.type _ZN19CVirtualMachineFileD2Ev, @function
_ZN19CVirtualMachineFileD2Ev:
	pushl $0
	movl 8(%esp), %eax
	pushl %eax
	mov $0x08263fac, %eax
	call *%eax
	addl $8, %esp
	ret
	.align 2
.globl _ZN19CVirtualMachineFileD1Ev
	.type _ZN19CVirtualMachineFileD1Ev, @function
_ZN19CVirtualMachineFileD1Ev:
	pushl $0
	movl 8(%esp), %eax
	pushl %eax
	mov $0x08263fac, %eax
	call *%eax
	addl $8, %esp
	ret
	.align 2
.globl _ZN19CVirtualMachineFileC2Ev
	.type _ZN19CVirtualMachineFileC2Ev, @function
_ZN19CVirtualMachineFileC2Ev:
	mov $0x08263f8c, %eax
	jmp *%eax
	.align 2
.globl _ZN19CVirtualMachineFileC1Ev
	.type _ZN19CVirtualMachineFileC1Ev, @function
_ZN19CVirtualMachineFileC1Ev:
	mov $0x08263f8c, %eax
	jmp *%eax
	.align 2
.globl _ZN7CNWFeatD2Ev
	.type _ZN7CNWFeatD2Ev, @function
_ZN7CNWFeatD2Ev:
	pushl $0
	movl 8(%esp), %eax
	pushl %eax
	mov $0x08239028, %eax
	call *%eax
	addl $8, %esp
	ret
	.align 2
.globl _ZN7CNWFeatD1Ev
	.type _ZN7CNWFeatD1Ev, @function
_ZN7CNWFeatD1Ev:
	pushl $0
	movl 8(%esp), %eax
	pushl %eax
	mov $0x08239028, %eax
	call *%eax
	addl $8, %esp
	ret
	.align 2
.globl _ZN7CNWFeatC2Ev
	.type _ZN7CNWFeatC2Ev, @function
_ZN7CNWFeatC2Ev:
	mov $0x08238df8, %eax
	jmp *%eax
	.align 2
.globl _ZN7CNWFeatC1Ev
	.type _ZN7CNWFeatC1Ev, @function
_ZN7CNWFeatC1Ev:
	mov $0x08238df8, %eax
	jmp *%eax
	.align 2
.globl _ZN8CNWSkillD2Ev
	.type _ZN8CNWSkillD2Ev, @function
_ZN8CNWSkillD2Ev:
	pushl $0
	movl 8(%esp), %eax
	pushl %eax
	mov $0x081b2d98, %eax
	call *%eax
	addl $8, %esp
	ret
	.align 2
.globl _ZN8CNWSkillD1Ev
	.type _ZN8CNWSkillD1Ev, @function
_ZN8CNWSkillD1Ev:
	pushl $0
	movl 8(%esp), %eax
	pushl %eax
	mov $0x081b2d98, %eax
	call *%eax
	addl $8, %esp
	ret
	.align 2
.globl _ZN8CNWSkillC2Ev
	.type _ZN8CNWSkillC2Ev, @function
_ZN8CNWSkillC2Ev:
	mov $0x081b2d54, %eax
	jmp *%eax
	.align 2
.globl _ZN8CNWSkillC1Ev
	.type _ZN8CNWSkillC1Ev, @function
_ZN8CNWSkillC1Ev:
	mov $0x081b2d54, %eax
	jmp *%eax
	.align 2
.globl _ZN9CNWDomainD2Ev
	.type _ZN9CNWDomainD2Ev, @function
_ZN9CNWDomainD2Ev:
	pushl $0
	movl 8(%esp), %eax
	pushl %eax
	mov $0x08236f70, %eax
	call *%eax
	addl $8, %esp
	ret
	.align 2
.globl _ZN9CNWDomainD1Ev
	.type _ZN9CNWDomainD1Ev, @function
_ZN9CNWDomainD1Ev:
	pushl $0
	movl 8(%esp), %eax
	pushl %eax
	mov $0x08236f70, %eax
	call *%eax
	addl $8, %esp
	ret
	.align 2
.globl _ZN9CNWDomainC2Ev
	.type _ZN9CNWDomainC2Ev, @function
_ZN9CNWDomainC2Ev:
	mov $0x08236f1c, %eax
	jmp *%eax
	.align 2
.globl _ZN9CNWDomainC1Ev
	.type _ZN9CNWDomainC1Ev, @function
_ZN9CNWDomainC1Ev:
	mov $0x08236f1c, %eax
	jmp *%eax
	.align 2
.globl _ZN7CResLTRD2Ev
	.type _ZN7CResLTRD2Ev, @function
_ZN7CResLTRD2Ev:
	pushl $0
	movl 8(%esp), %eax
	pushl %eax
	mov $0x08271c3c, %eax
	call *%eax
	addl $8, %esp
	ret
	.align 2
.globl _ZN7CResLTRD1Ev
	.type _ZN7CResLTRD1Ev, @function
_ZN7CResLTRD1Ev:
	pushl $0
	movl 8(%esp), %eax
	pushl %eax
	mov $0x08271c3c, %eax
	call *%eax
	addl $8, %esp
	ret
	.align 2
.globl _ZN7CResLTRC2Ev
	.type _ZN7CResLTRC2Ev, @function
_ZN7CResLTRC2Ev:
	mov $0x08271bc0, %eax
	jmp *%eax
	.align 2
.globl _ZN7CResLTRC1Ev
	.type _ZN7CResLTRC1Ev, @function
_ZN7CResLTRC1Ev:
	mov $0x08271bc0, %eax
	jmp *%eax
	.align 2
.globl _ZN10CExoTimersD2Ev
	.type _ZN10CExoTimersD2Ev, @function
_ZN10CExoTimersD2Ev:
	pushl $0
	movl 8(%esp), %eax
	pushl %eax
	mov $0x082cc758, %eax
	call *%eax
	addl $8, %esp
	ret
	.align 2
.globl _ZN10CExoTimersD1Ev
	.type _ZN10CExoTimersD1Ev, @function
_ZN10CExoTimersD1Ev:
	pushl $0
	movl 8(%esp), %eax
	pushl %eax
	mov $0x082cc758, %eax
	call *%eax
	addl $8, %esp
	ret
	.align 2
.globl _ZN10CExoTimersC2Ev
	.type _ZN10CExoTimersC2Ev, @function
_ZN10CExoTimersC2Ev:
	mov $0x082cc710, %eax
	jmp *%eax
	.align 2
.globl _ZN10CExoTimersC1Ev
	.type _ZN10CExoTimersC1Ev, @function
_ZN10CExoTimersC1Ev:
	mov $0x082cc710, %eax
	jmp *%eax
	.align 2
.globl _ZN18CExoTimersInternalD2Ev
	.type _ZN18CExoTimersInternalD2Ev, @function
_ZN18CExoTimersInternalD2Ev:
	pushl $0
	movl 8(%esp), %eax
	pushl %eax
	mov $0x082d1d28, %eax
	call *%eax
	addl $8, %esp
	ret
	.align 2
.globl _ZN18CExoTimersInternalD1Ev
	.type _ZN18CExoTimersInternalD1Ev, @function
_ZN18CExoTimersInternalD1Ev:
	pushl $0
	movl 8(%esp), %eax
	pushl %eax
	mov $0x082d1d28, %eax
	call *%eax
	addl $8, %esp
	ret
	.align 2
.globl _ZN18CExoTimersInternalC2Ev
	.type _ZN18CExoTimersInternalC2Ev, @function
_ZN18CExoTimersInternalC2Ev:
	mov $0x082d1cfc, %eax
	jmp *%eax
	.align 2
.globl _ZN18CExoTimersInternalC1Ev
	.type _ZN18CExoTimersInternalC1Ev, @function
_ZN18CExoTimersInternalC1Ev:
	mov $0x082d1cfc, %eax
	jmp *%eax
	.align 2
.globl _ZN11CNWBaseItemD2Ev
	.type _ZN11CNWBaseItemD2Ev, @function
_ZN11CNWBaseItemD2Ev:
	pushl $0
	movl 8(%esp), %eax
	pushl %eax
	mov $0x080c17d8, %eax
	call *%eax
	addl $8, %esp
	ret
	.align 2
.globl _ZN11CNWBaseItemD1Ev
	.type _ZN11CNWBaseItemD1Ev, @function
_ZN11CNWBaseItemD1Ev:
	pushl $0
	movl 8(%esp), %eax
	pushl %eax
	mov $0x080c17d8, %eax
	call *%eax
	addl $8, %esp
	ret
	.align 2
.globl _ZN11CNWBaseItemC2Ev
	.type _ZN11CNWBaseItemC2Ev, @function
_ZN11CNWBaseItemC2Ev:
	mov $0x080c175c, %eax
	jmp *%eax
	.align 2
.globl _ZN11CNWBaseItemC1Ev
	.type _ZN11CNWBaseItemC1Ev, @function
_ZN11CNWBaseItemC1Ev:
	mov $0x080c175c, %eax
	jmp *%eax
	.align 2
.globl _ZN18CNWDoorSurfaceMeshD2Ev
	.type _ZN18CNWDoorSurfaceMeshD2Ev, @function
_ZN18CNWDoorSurfaceMeshD2Ev:
	pushl $0
	movl 8(%esp), %eax
	pushl %eax
	mov $0x08238a28, %eax
	call *%eax
	addl $8, %esp
	ret
	.align 2
.globl _ZN18CNWDoorSurfaceMeshD1Ev
	.type _ZN18CNWDoorSurfaceMeshD1Ev, @function
_ZN18CNWDoorSurfaceMeshD1Ev:
	pushl $0
	movl 8(%esp), %eax
	pushl %eax
	mov $0x08238a28, %eax
	call *%eax
	addl $8, %esp
	ret
	.align 2
.globl _ZN18CNWDoorSurfaceMeshC2Ev
	.type _ZN18CNWDoorSurfaceMeshC2Ev, @function
_ZN18CNWDoorSurfaceMeshC2Ev:
	mov $0x08236f8c, %eax
	jmp *%eax
	.align 2
.globl _ZN18CNWDoorSurfaceMeshC1Ev
	.type _ZN18CNWDoorSurfaceMeshC1Ev, @function
_ZN18CNWDoorSurfaceMeshC1Ev:
	mov $0x08236f8c, %eax
	jmp *%eax
	.align 2
.globl _ZN7CResNCSD2Ev
	.type _ZN7CResNCSD2Ev, @function
_ZN7CResNCSD2Ev:
	pushl $0
	movl 8(%esp), %eax
	pushl %eax
	mov $0x0826a700, %eax
	call *%eax
	addl $8, %esp
	ret
	.align 2
.globl _ZN7CResNCSD1Ev
	.type _ZN7CResNCSD1Ev, @function
_ZN7CResNCSD1Ev:
	pushl $0
	movl 8(%esp), %eax
	pushl %eax
	mov $0x0826a700, %eax
	call *%eax
	addl $8, %esp
	ret
	.align 2
.globl _ZN7CResNCSC2Ev
	.type _ZN7CResNCSC2Ev, @function
_ZN7CResNCSC2Ev:
	mov $0x0826a6cc, %eax
	jmp *%eax
	.align 2
.globl _ZN7CResNCSC1Ev
	.type _ZN7CResNCSC1Ev, @function
_ZN7CResNCSC1Ev:
	mov $0x0826a6cc, %eax
	jmp *%eax
	.align 2
.globl _ZN7CResNDBD2Ev
	.type _ZN7CResNDBD2Ev, @function
_ZN7CResNDBD2Ev:
	pushl $0
	movl 8(%esp), %eax
	pushl %eax
	mov $0x0826a820, %eax
	call *%eax
	addl $8, %esp
	ret
	.align 2
.globl _ZN7CResNDBD1Ev
	.type _ZN7CResNDBD1Ev, @function
_ZN7CResNDBD1Ev:
	pushl $0
	movl 8(%esp), %eax
	pushl %eax
	mov $0x0826a820, %eax
	call *%eax
	addl $8, %esp
	ret
	.align 2
.globl _ZN7CResNDBC2Ev
	.type _ZN7CResNDBC2Ev, @function
_ZN7CResNDBC2Ev:
	mov $0x0826a7ec, %eax
	jmp *%eax
	.align 2
.globl _ZN7CResNDBC1Ev
	.type _ZN7CResNDBC1Ev, @function
_ZN7CResNDBC1Ev:
	mov $0x0826a7ec, %eax
	jmp *%eax
	.align 2
.globl _ZN7CResNSSD2Ev
	.type _ZN7CResNSSD2Ev, @function
_ZN7CResNSSD2Ev:
	pushl $0
	movl 8(%esp), %eax
	pushl %eax
	mov $0x0826a940, %eax
	call *%eax
	addl $8, %esp
	ret
	.align 2
.globl _ZN7CResNSSD1Ev
	.type _ZN7CResNSSD1Ev, @function
_ZN7CResNSSD1Ev:
	pushl $0
	movl 8(%esp), %eax
	pushl %eax
	mov $0x0826a940, %eax
	call *%eax
	addl $8, %esp
	ret
	.align 2
.globl _ZN7CResNSSC2Ev
	.type _ZN7CResNSSC2Ev, @function
_ZN7CResNSSC2Ev:
	mov $0x0826a90c, %eax
	jmp *%eax
	.align 2
.globl _ZN7CResNSSC1Ev
	.type _ZN7CResNSSC1Ev, @function
_ZN7CResNSSC1Ev:
	mov $0x0826a90c, %eax
	jmp *%eax
	.align 2
.globl _ZN16CExoFileInternalD2Ev
	.type _ZN16CExoFileInternalD2Ev, @function
_ZN16CExoFileInternalD2Ev:
	pushl $0
	movl 8(%esp), %eax
	pushl %eax
	mov $0x082d092c, %eax
	call *%eax
	addl $8, %esp
	ret
	.align 2
.globl _ZN16CExoFileInternalD1Ev
	.type _ZN16CExoFileInternalD1Ev, @function
_ZN16CExoFileInternalD1Ev:
	pushl $0
	movl 8(%esp), %eax
	pushl %eax
	mov $0x082d092c, %eax
	call *%eax
	addl $8, %esp
	ret
	.align 2
.globl _ZN16CExoFileInternalC2ERK10CExoStringtS2_
	.type _ZN16CExoFileInternalC2ERK10CExoStringtS2_, @function
_ZN16CExoFileInternalC2ERK10CExoStringtS2_:
	mov $0x082d0868, %eax
	jmp *%eax
	.align 2
.globl _ZN16CExoFileInternalC1ERK10CExoStringtS2_
	.type _ZN16CExoFileInternalC1ERK10CExoStringtS2_, @function
_ZN16CExoFileInternalC1ERK10CExoStringtS2_:
	mov $0x082d0868, %eax
	jmp *%eax
	.align 2
.globl _ZN7CResPWKD2Ev
	.type _ZN7CResPWKD2Ev, @function
_ZN7CResPWKD2Ev:
	pushl $0
	movl 8(%esp), %eax
	pushl %eax
	mov $0x082405f0, %eax
	call *%eax
	addl $8, %esp
	ret
	.align 2
.globl _ZN7CResPWKD1Ev
	.type _ZN7CResPWKD1Ev, @function
_ZN7CResPWKD1Ev:
	pushl $0
	movl 8(%esp), %eax
	pushl %eax
	mov $0x082405f0, %eax
	call *%eax
	addl $8, %esp
	ret
	.align 2
.globl _ZN7CResPWKC2Ev
	.type _ZN7CResPWKC2Ev, @function
_ZN7CResPWKC2Ev:
	mov $0x082405b4, %eax
	jmp *%eax
	.align 2
.globl _ZN7CResPWKC1Ev
	.type _ZN7CResPWKC1Ev, @function
_ZN7CResPWKC1Ev:
	mov $0x082405b4, %eax
	jmp *%eax
	.align 2
.globl _ZN16CNWSAmbientSoundD2Ev
	.type _ZN16CNWSAmbientSoundD2Ev, @function
_ZN16CNWSAmbientSoundD2Ev:
	pushl $0
	movl 8(%esp), %eax
	pushl %eax
	mov $0x0823acbc, %eax
	call *%eax
	addl $8, %esp
	ret
	.align 2
.globl _ZN16CNWSAmbientSoundD1Ev
	.type _ZN16CNWSAmbientSoundD1Ev, @function
_ZN16CNWSAmbientSoundD1Ev:
	pushl $0
	movl 8(%esp), %eax
	pushl %eax
	mov $0x0823acbc, %eax
	call *%eax
	addl $8, %esp
	ret
	.align 2
.globl _ZN16CNWSAmbientSoundC2Em
	.type _ZN16CNWSAmbientSoundC2Em, @function
_ZN16CNWSAmbientSoundC2Em:
	mov $0x0823aaa8, %eax
	jmp *%eax
	.align 2
.globl _ZN16CNWSAmbientSoundC1Em
	.type _ZN16CNWSAmbientSoundC1Em, @function
_ZN16CNWSAmbientSoundC1Em:
	mov $0x0823aaa8, %eax
	jmp *%eax
	.align 2
.globl _ZN10CNWNameGenD2Ev
	.type _ZN10CNWNameGenD2Ev, @function
_ZN10CNWNameGenD2Ev:
	pushl $0
	movl 8(%esp), %eax
	pushl %eax
	mov $0x08270fec, %eax
	call *%eax
	addl $8, %esp
	ret
	.align 2
.globl _ZN10CNWNameGenD1Ev
	.type _ZN10CNWNameGenD1Ev, @function
_ZN10CNWNameGenD1Ev:
	pushl $0
	movl 8(%esp), %eax
	pushl %eax
	mov $0x08270fec, %eax
	call *%eax
	addl $8, %esp
	ret
	.align 2
.globl _ZN10CNWNameGenC2Ev
	.type _ZN10CNWNameGenC2Ev, @function
_ZN10CNWNameGenC2Ev:
	mov $0x08270fbc, %eax
	jmp *%eax
	.align 2
.globl _ZN10CNWNameGenC1Ev
	.type _ZN10CNWNameGenC1Ev, @function
_ZN10CNWNameGenC1Ev:
	mov $0x08270fbc, %eax
	jmp *%eax
	.align 2
.globl _ZN8CNWSpellD2Ev
	.type _ZN8CNWSpellD2Ev, @function
_ZN8CNWSpellD2Ev:
	pushl $0
	movl 8(%esp), %eax
	pushl %eax
	mov $0x081db698, %eax
	call *%eax
	addl $8, %esp
	ret
	.align 2
.globl _ZN8CNWSpellD1Ev
	.type _ZN8CNWSpellD1Ev, @function
_ZN8CNWSpellD1Ev:
	pushl $0
	movl 8(%esp), %eax
	pushl %eax
	mov $0x081db698, %eax
	call *%eax
	addl $8, %esp
	ret
	.align 2
.globl _ZN8CNWSpellC2Ev
	.type _ZN8CNWSpellC2Ev, @function
_ZN8CNWSpellC2Ev:
	mov $0x081d85a0, %eax
	jmp *%eax
	.align 2
.globl _ZN8CNWSpellC1Ev
	.type _ZN8CNWSpellC1Ev, @function
_ZN8CNWSpellC1Ev:
	mov $0x081d85a0, %eax
	jmp *%eax
	.align 2
.globl _ZN13CNWSpellArrayD2Ev
	.type _ZN13CNWSpellArrayD2Ev, @function
_ZN13CNWSpellArrayD2Ev:
	pushl $0
	movl 8(%esp), %eax
	pushl %eax
	mov $0x081d8a30, %eax
	call *%eax
	addl $8, %esp
	ret
	.align 2
.globl _ZN13CNWSpellArrayD1Ev
	.type _ZN13CNWSpellArrayD1Ev, @function
_ZN13CNWSpellArrayD1Ev:
	pushl $0
	movl 8(%esp), %eax
	pushl %eax
	mov $0x081d8a30, %eax
	call *%eax
	addl $8, %esp
	ret
	.align 2
.globl _ZN13CNWSpellArrayC2Ev
	.type _ZN13CNWSpellArrayC2Ev, @function
_ZN13CNWSpellArrayC2Ev:
	mov $0x081db8ac, %eax
	jmp *%eax
	.align 2
.globl _ZN13CNWSpellArrayC1Ev
	.type _ZN13CNWSpellArrayC1Ev, @function
_ZN13CNWSpellArrayC1Ev:
	mov $0x081db8ac, %eax
	jmp *%eax
	.align 2
.globl _ZN8CExoRandD2Ev
	.type _ZN8CExoRandD2Ev, @function
_ZN8CExoRandD2Ev:
	pushl $0
	movl 8(%esp), %eax
	pushl %eax
	mov $0x082ca224, %eax
	call *%eax
	addl $8, %esp
	ret
	.align 2
.globl _ZN8CExoRandD1Ev
	.type _ZN8CExoRandD1Ev, @function
_ZN8CExoRandD1Ev:
	pushl $0
	movl 8(%esp), %eax
	pushl %eax
	mov $0x082ca224, %eax
	call *%eax
	addl $8, %esp
	ret
	.align 2
.globl _ZN8CExoRandC2Ev
	.type _ZN8CExoRandC2Ev, @function
_ZN8CExoRandC2Ev:
	mov $0x082ca1dc, %eax
	jmp *%eax
	.align 2
.globl _ZN8CExoRandC1Ev
	.type _ZN8CExoRandC1Ev, @function
_ZN8CExoRandC1Ev:
	mov $0x082ca1dc, %eax
	jmp *%eax
	.align 2
.globl _ZN10CERFStringD2Ev
	.type _ZN10CERFStringD2Ev, @function
_ZN10CERFStringD2Ev:
	pushl $0
	movl 8(%esp), %eax
	pushl %eax
	mov $0x082b7f38, %eax
	call *%eax
	addl $8, %esp
	ret
	.align 2
.globl _ZN10CERFStringD1Ev
	.type _ZN10CERFStringD1Ev, @function
_ZN10CERFStringD1Ev:
	pushl $0
	movl 8(%esp), %eax
	pushl %eax
	mov $0x082b7f38, %eax
	call *%eax
	addl $8, %esp
	ret
	.align 2
.globl _ZN10CERFStringC2Ev
	.type _ZN10CERFStringC2Ev, @function
_ZN10CERFStringC2Ev:
	mov $0x082b7f1c, %eax
	jmp *%eax
	.align 2
.globl _ZN10CERFStringC1Ev
	.type _ZN10CERFStringC1Ev, @function
_ZN10CERFStringC1Ev:
	mov $0x082b7f1c, %eax
	jmp *%eax
	.align 2
.globl _ZN7CResWOKD2Ev
	.type _ZN7CResWOKD2Ev, @function
_ZN7CResWOKD2Ev:
	pushl $0
	movl 8(%esp), %eax
	pushl %eax
	mov $0x080959b0, %eax
	call *%eax
	addl $8, %esp
	ret
	.align 2
.globl _ZN7CResWOKD1Ev
	.type _ZN7CResWOKD1Ev, @function
_ZN7CResWOKD1Ev:
	pushl $0
	movl 8(%esp), %eax
	pushl %eax
	mov $0x080959b0, %eax
	call *%eax
	addl $8, %esp
	ret
	.align 2
.globl _ZN7CResWOKC2Ev
	.type _ZN7CResWOKC2Ev, @function
_ZN7CResWOKC2Ev:
	mov $0x0809597c, %eax
	jmp *%eax
	.align 2
.globl _ZN7CResWOKC1Ev
	.type _ZN7CResWOKC1Ev, @function
_ZN7CResWOKC1Ev:
	mov $0x0809597c, %eax
	jmp *%eax
	.align 2
.globl _ZN21CNWSEffectListHandlerD2Ev
	.type _ZN21CNWSEffectListHandlerD2Ev, @function
_ZN21CNWSEffectListHandlerD2Ev:
	pushl $0
	movl 8(%esp), %eax
	pushl %eax
	mov $0x0817cbc8, %eax
	call *%eax
	addl $8, %esp
	ret
	.align 2
.globl _ZN21CNWSEffectListHandlerD1Ev
	.type _ZN21CNWSEffectListHandlerD1Ev, @function
_ZN21CNWSEffectListHandlerD1Ev:
	pushl $0
	movl 8(%esp), %eax
	pushl %eax
	mov $0x0817cbc8, %eax
	call *%eax
	addl $8, %esp
	ret
	.align 2
.globl _ZN17CLastUpdateObjectD2Ev
	.type _ZN17CLastUpdateObjectD2Ev, @function
_ZN17CLastUpdateObjectD2Ev:
	pushl $0
	movl 8(%esp), %eax
	pushl %eax
	mov $0x081e2fdc, %eax
	call *%eax
	addl $8, %esp
	ret
	.align 2
.globl _ZN17CLastUpdateObjectD1Ev
	.type _ZN17CLastUpdateObjectD1Ev, @function
_ZN17CLastUpdateObjectD1Ev:
	pushl $0
	movl 8(%esp), %eax
	pushl %eax
	mov $0x081e2fdc, %eax
	call *%eax
	addl $8, %esp
	ret
	.align 2
.globl _ZN17CLastUpdateObjectC2Ev
	.type _ZN17CLastUpdateObjectC2Ev, @function
_ZN17CLastUpdateObjectC2Ev:
	mov $0x081e2c24, %eax
	jmp *%eax
	.align 2
.globl _ZN17CLastUpdateObjectC1Ev
	.type _ZN17CLastUpdateObjectC1Ev, @function
_ZN17CLastUpdateObjectC1Ev:
	mov $0x081e2c24, %eax
	jmp *%eax
	.align 2
.globl _ZN18CCombatInformationD2Ev
	.type _ZN18CCombatInformationD2Ev, @function
_ZN18CCombatInformationD2Ev:
	pushl $0
	movl 8(%esp), %eax
	pushl %eax
	mov $0x080c4fc8, %eax
	call *%eax
	addl $8, %esp
	ret
	.align 2
.globl _ZN18CCombatInformationD1Ev
	.type _ZN18CCombatInformationD1Ev, @function
_ZN18CCombatInformationD1Ev:
	pushl $0
	movl 8(%esp), %eax
	pushl %eax
	mov $0x080c4fc8, %eax
	call *%eax
	addl $8, %esp
	ret
	.align 2
.globl _ZN18CCombatInformationC2Ev
	.type _ZN18CCombatInformationC2Ev, @function
_ZN18CCombatInformationC2Ev:
	mov $0x080c4e88, %eax
	jmp *%eax
	.align 2
.globl _ZN18CCombatInformationC1Ev
	.type _ZN18CCombatInformationC1Ev, @function
_ZN18CCombatInformationC1Ev:
	mov $0x080c4e88, %eax
	jmp *%eax
	.align 2
.globl _ZN21CNWSCombatRoundActionD2Ev
	.type _ZN21CNWSCombatRoundActionD2Ev, @function
_ZN21CNWSCombatRoundActionD2Ev:
	pushl $0
	movl 8(%esp), %eax
	pushl %eax
	mov $0x080e4aac, %eax
	call *%eax
	addl $8, %esp
	ret
	.align 2
.globl _ZN21CNWSCombatRoundActionD1Ev
	.type _ZN21CNWSCombatRoundActionD1Ev, @function
_ZN21CNWSCombatRoundActionD1Ev:
	pushl $0
	movl 8(%esp), %eax
	pushl %eax
	mov $0x080e4aac, %eax
	call *%eax
	addl $8, %esp
	ret
	.align 2
.globl _ZN21CNWSCombatRoundActionC2Ev
	.type _ZN21CNWSCombatRoundActionC2Ev, @function
_ZN21CNWSCombatRoundActionC2Ev:
	mov $0x080e4a60, %eax
	jmp *%eax
	.align 2
.globl _ZN21CNWSCombatRoundActionC1Ev
	.type _ZN21CNWSCombatRoundActionC1Ev, @function
_ZN21CNWSCombatRoundActionC1Ev:
	mov $0x080e4a60, %eax
	jmp *%eax
	.align 2
.globl _ZN16CNWSForcedActionD2Ev
	.type _ZN16CNWSForcedActionD2Ev, @function
_ZN16CNWSForcedActionD2Ev:
	pushl $0
	movl 8(%esp), %eax
	pushl %eax
	mov $0x08184688, %eax
	call *%eax
	addl $8, %esp
	ret
	.align 2
.globl _ZN16CNWSForcedActionD1Ev
	.type _ZN16CNWSForcedActionD1Ev, @function
_ZN16CNWSForcedActionD1Ev:
	pushl $0
	movl 8(%esp), %eax
	pushl %eax
	mov $0x08184688, %eax
	call *%eax
	addl $8, %esp
	ret
	.align 2
.globl _ZN16CNWSForcedActionC2Ev
	.type _ZN16CNWSForcedActionC2Ev, @function
_ZN16CNWSForcedActionC2Ev:
	mov $0x0818464c, %eax
	jmp *%eax
	.align 2
.globl _ZN16CNWSForcedActionC1Ev
	.type _ZN16CNWSForcedActionC1Ev, @function
_ZN16CNWSForcedActionC1Ev:
	mov $0x0818464c, %eax
	jmp *%eax
	.align 2
.globl _ZN17CScriptSourceFileD2Ev
	.type _ZN17CScriptSourceFileD2Ev, @function
_ZN17CScriptSourceFileD2Ev:
	pushl $0
	movl 8(%esp), %eax
	pushl %eax
	mov $0x08248124, %eax
	call *%eax
	addl $8, %esp
	ret
	.align 2
.globl _ZN17CScriptSourceFileD1Ev
	.type _ZN17CScriptSourceFileD1Ev, @function
_ZN17CScriptSourceFileD1Ev:
	pushl $0
	movl 8(%esp), %eax
	pushl %eax
	mov $0x08248124, %eax
	call *%eax
	addl $8, %esp
	ret
	.align 2
.globl _ZN17CScriptSourceFileC2Ev
	.type _ZN17CScriptSourceFileC2Ev, @function
_ZN17CScriptSourceFileC2Ev:
	mov $0x08247b24, %eax
	jmp *%eax
	.align 2
.globl _ZN17CScriptSourceFileC1Ev
	.type _ZN17CScriptSourceFileC1Ev, @function
_ZN17CScriptSourceFileC1Ev:
	mov $0x08247b24, %eax
	jmp *%eax
	.align 2
.globl _ZN23CNWPlaceableSurfaceMeshD2Ev
	.type _ZN23CNWPlaceableSurfaceMeshD2Ev, @function
_ZN23CNWPlaceableSurfaceMeshD2Ev:
	pushl $0
	movl 8(%esp), %eax
	pushl %eax
	mov $0x08239dc8, %eax
	call *%eax
	addl $8, %esp
	ret
	.align 2
.globl _ZN23CNWPlaceableSurfaceMeshD1Ev
	.type _ZN23CNWPlaceableSurfaceMeshD1Ev, @function
_ZN23CNWPlaceableSurfaceMeshD1Ev:
	pushl $0
	movl 8(%esp), %eax
	pushl %eax
	mov $0x08239dc8, %eax
	call *%eax
	addl $8, %esp
	ret
	.align 2
.globl _ZN23CNWPlaceableSurfaceMeshC2Ev
	.type _ZN23CNWPlaceableSurfaceMeshC2Ev, @function
_ZN23CNWPlaceableSurfaceMeshC2Ev:
	mov $0x08239d5c, %eax
	jmp *%eax
	.align 2
.globl _ZN23CNWPlaceableSurfaceMeshC1Ev
	.type _ZN23CNWPlaceableSurfaceMeshC1Ev, @function
_ZN23CNWPlaceableSurfaceMeshC1Ev:
	mov $0x08239d5c, %eax
	jmp *%eax
	.align 2
.globl _ZN8CTlkFileC2E10CExoString
	.type _ZN8CTlkFileC2E10CExoString, @function
_ZN8CTlkFileC2E10CExoString:
	mov $0x082b614c, %eax
	jmp *%eax
	.align 2
.globl _ZN8CTlkFileC1E10CExoString
	.type _ZN8CTlkFileC1E10CExoString, @function
_ZN8CTlkFileC1E10CExoString:
	mov $0x082b614c, %eax
	jmp *%eax
	.align 2
.globl _ZN15CExoIniInternalD2Ev
	.type _ZN15CExoIniInternalD2Ev, @function
_ZN15CExoIniInternalD2Ev:
	pushl $0
	movl 8(%esp), %eax
	pushl %eax
	mov $0x082d0b58, %eax
	call *%eax
	addl $8, %esp
	ret
	.align 2
.globl _ZN15CExoIniInternalD1Ev
	.type _ZN15CExoIniInternalD1Ev, @function
_ZN15CExoIniInternalD1Ev:
	pushl $0
	movl 8(%esp), %eax
	pushl %eax
	mov $0x082d0b58, %eax
	call *%eax
	addl $8, %esp
	ret
	.align 2
.globl _ZN15CExoIniInternalC2Ev
	.type _ZN15CExoIniInternalC2Ev, @function
_ZN15CExoIniInternalC2Ev:
	mov $0x082d0b50, %eax
	jmp *%eax
	.align 2
.globl _ZN15CExoIniInternalC1Ev
	.type _ZN15CExoIniInternalC1Ev, @function
_ZN15CExoIniInternalC1Ev:
	mov $0x082d0b50, %eax
	jmp *%eax
	.align 2
.globl _ZN7CExoIniD2Ev
	.type _ZN7CExoIniD2Ev, @function
_ZN7CExoIniD2Ev:
	pushl $0
	movl 8(%esp), %eax
	pushl %eax
	mov $0x082c9840, %eax
	call *%eax
	addl $8, %esp
	ret
	.align 2
.globl _ZN7CExoIniD1Ev
	.type _ZN7CExoIniD1Ev, @function
_ZN7CExoIniD1Ev:
	pushl $0
	movl 8(%esp), %eax
	pushl %eax
	mov $0x082c9840, %eax
	call *%eax
	addl $8, %esp
	ret
	.align 2
.globl _ZN7CExoIniC2Ev
	.type _ZN7CExoIniC2Ev, @function
_ZN7CExoIniC2Ev:
	mov $0x082c97f8, %eax
	jmp *%eax
	.align 2
.globl _ZN7CExoIniC1Ev
	.type _ZN7CExoIniC1Ev, @function
_ZN7CExoIniC1Ev:
	mov $0x082c97f8, %eax
	jmp *%eax
	.align 2
.globl _ZN7CERFKeyD2Ev
	.type _ZN7CERFKeyD2Ev, @function
_ZN7CERFKeyD2Ev:
	pushl $0
	movl 8(%esp), %eax
	pushl %eax
	mov $0x082b7d24, %eax
	call *%eax
	addl $8, %esp
	ret
	.align 2
.globl _ZN7CERFKeyD1Ev
	.type _ZN7CERFKeyD1Ev, @function
_ZN7CERFKeyD1Ev:
	pushl $0
	movl 8(%esp), %eax
	pushl %eax
	mov $0x082b7d24, %eax
	call *%eax
	addl $8, %esp
	ret
	.align 2
.globl _ZN7CERFKeyC2Ev
	.type _ZN7CERFKeyC2Ev, @function
_ZN7CERFKeyC2Ev:
	mov $0x082b7cf8, %eax
	jmp *%eax
	.align 2
.globl _ZN7CERFKeyC1Ev
	.type _ZN7CERFKeyC1Ev, @function
_ZN7CERFKeyC1Ev:
	mov $0x082b7cf8, %eax
	jmp *%eax
	.align 2
.globl _ZN7CERFResD2Ev
	.type _ZN7CERFResD2Ev, @function
_ZN7CERFResD2Ev:
	pushl $0
	movl 8(%esp), %eax
	pushl %eax
	mov $0x082b7e3c, %eax
	call *%eax
	addl $8, %esp
	ret
	.align 2
.globl _ZN7CERFResD1Ev
	.type _ZN7CERFResD1Ev, @function
_ZN7CERFResD1Ev:
	pushl $0
	movl 8(%esp), %eax
	pushl %eax
	mov $0x082b7e3c, %eax
	call *%eax
	addl $8, %esp
	ret
	.align 2
.globl _ZN7CERFResC2Ev
	.type _ZN7CERFResC2Ev, @function
_ZN7CERFResC2Ev:
	mov $0x082b7e20, %eax
	jmp *%eax
	.align 2
.globl _ZN7CERFResC1Ev
	.type _ZN7CERFResC1Ev, @function
_ZN7CERFResC1Ev:
	mov $0x082b7e20, %eax
	jmp *%eax
	.align 2
.globl _ZN22CNWSPlayerContainerGUIC2Ev
	.type _ZN22CNWSPlayerContainerGUIC2Ev, @function
_ZN22CNWSPlayerContainerGUIC2Ev:
	mov $0x0805e6a8, %eax
	jmp *%eax
	.align 2
.globl _ZN22CNWSPlayerContainerGUIC1Ev
	.type _ZN22CNWSPlayerContainerGUIC1Ev, @function
_ZN22CNWSPlayerContainerGUIC1Ev:
	mov $0x0805e6a8, %eax
	jmp *%eax
	.align 2
.globl _ZN22CNWSPlayerInventoryGUID2Ev
	.type _ZN22CNWSPlayerInventoryGUID2Ev, @function
_ZN22CNWSPlayerInventoryGUID2Ev:
	pushl $0
	movl 8(%esp), %eax
	pushl %eax
	mov $0x0805e568, %eax
	call *%eax
	addl $8, %esp
	ret
	.align 2
.globl _ZN22CNWSPlayerInventoryGUID1Ev
	.type _ZN22CNWSPlayerInventoryGUID1Ev, @function
_ZN22CNWSPlayerInventoryGUID1Ev:
	pushl $0
	movl 8(%esp), %eax
	pushl %eax
	mov $0x0805e568, %eax
	call *%eax
	addl $8, %esp
	ret
	.align 2
.globl _ZN22CNWSPlayerInventoryGUIC2Ev
	.type _ZN22CNWSPlayerInventoryGUIC2Ev, @function
_ZN22CNWSPlayerInventoryGUIC2Ev:
	mov $0x0805376c, %eax
	jmp *%eax
	.align 2
.globl _ZN22CNWSPlayerInventoryGUIC1Ev
	.type _ZN22CNWSPlayerInventoryGUIC1Ev, @function
_ZN22CNWSPlayerInventoryGUIC1Ev:
	mov $0x0805376c, %eax
	jmp *%eax
	.align 2
.globl _ZN11MS_RSAVLongD2Ev
	.type _ZN11MS_RSAVLongD2Ev, @function
_ZN11MS_RSAVLongD2Ev:
	pushl $0
	movl 8(%esp), %eax
	pushl %eax
	mov $0x0829bdac, %eax
	call *%eax
	addl $8, %esp
	ret
	.align 2
.globl _ZN11MS_RSAVLongD1Ev
	.type _ZN11MS_RSAVLongD1Ev, @function
_ZN11MS_RSAVLongD1Ev:
	pushl $0
	movl 8(%esp), %eax
	pushl %eax
	mov $0x0829bdac, %eax
	call *%eax
	addl $8, %esp
	ret
	.align 2
.globl _ZN11MS_RSAVLongC2ERKS_
	.type _ZN11MS_RSAVLongC2ERKS_, @function
_ZN11MS_RSAVLongC2ERKS_:
	mov $0x0829d634, %eax
	jmp *%eax
	.align 2
.globl _ZN11MS_RSAVLongC1ERKS_
	.type _ZN11MS_RSAVLongC1ERKS_, @function
_ZN11MS_RSAVLongC1ERKS_:
	mov $0x0829d634, %eax
	jmp *%eax
	.align 2
.globl _ZN11MS_RSAVLongC2Ej
	.type _ZN11MS_RSAVLongC2Ej, @function
_ZN11MS_RSAVLongC2Ej:
	mov $0x0829bce0, %eax
	jmp *%eax
	.align 2
.globl _ZN11MS_RSAVLongC1Ej
	.type _ZN11MS_RSAVLongC1Ej, @function
_ZN11MS_RSAVLongC1Ej:
	mov $0x0829bce0, %eax
	jmp *%eax
	.align 2
.globl _ZN17CBWCBlowFishBlockD2Ev
	.type _ZN17CBWCBlowFishBlockD2Ev, @function
_ZN17CBWCBlowFishBlockD2Ev:
	pushl $0
	movl 8(%esp), %eax
	pushl %eax
	mov $0x083082c4, %eax
	call *%eax
	addl $8, %esp
	ret
	.align 2
.globl _ZN17CBWCBlowFishBlockD1Ev
	.type _ZN17CBWCBlowFishBlockD1Ev, @function
_ZN17CBWCBlowFishBlockD1Ev:
	pushl $0
	movl 8(%esp), %eax
	pushl %eax
	mov $0x083082c4, %eax
	call *%eax
	addl $8, %esp
	ret
	.align 2
.globl _ZN17CBWCBlowFishBlockC2ERKS_
	.type _ZN17CBWCBlowFishBlockC2ERKS_, @function
_ZN17CBWCBlowFishBlockC2ERKS_:
	mov $0x083082ec, %eax
	jmp *%eax
	.align 2
.globl _ZN17CBWCBlowFishBlockC1ERKS_
	.type _ZN17CBWCBlowFishBlockC1ERKS_, @function
_ZN17CBWCBlowFishBlockC1ERKS_:
	mov $0x083082ec, %eax
	jmp *%eax
	.align 2
.globl _ZN17CBWCBlowFishBlockC2Emm
	.type _ZN17CBWCBlowFishBlockC2Emm, @function
_ZN17CBWCBlowFishBlockC2Emm:
	mov $0x083082b0, %eax
	jmp *%eax
	.align 2
.globl _ZN17CBWCBlowFishBlockC1Emm
	.type _ZN17CBWCBlowFishBlockC1Emm, @function
_ZN17CBWCBlowFishBlockC1Emm:
	mov $0x083082b0, %eax
	jmp *%eax
	.align 2
.globl _ZN18CNWSExpressionNodeD2Ev
	.type _ZN18CNWSExpressionNodeD2Ev, @function
_ZN18CNWSExpressionNodeD2Ev:
	pushl $0
	movl 8(%esp), %eax
	pushl %eax
	mov $0x0823ff20, %eax
	call *%eax
	addl $8, %esp
	ret
	.align 2
.globl _ZN18CNWSExpressionNodeD1Ev
	.type _ZN18CNWSExpressionNodeD1Ev, @function
_ZN18CNWSExpressionNodeD1Ev:
	pushl $0
	movl 8(%esp), %eax
	pushl %eax
	mov $0x0823ff20, %eax
	call *%eax
	addl $8, %esp
	ret
	.align 2
.globl _ZN18CNWSExpressionNodeC2Ev
	.type _ZN18CNWSExpressionNodeC2Ev, @function
_ZN18CNWSExpressionNodeC2Ev:
	mov $0x0823fef8, %eax
	jmp *%eax
	.align 2
.globl _ZN18CNWSExpressionNodeC1Ev
	.type _ZN18CNWSExpressionNodeC1Ev, @function
_ZN18CNWSExpressionNodeC1Ev:
	mov $0x0823fef8, %eax
	jmp *%eax
	.align 2
.globl _ZN20CNWSObjectActionNodeD2Ev
	.type _ZN20CNWSObjectActionNodeD2Ev, @function
_ZN20CNWSObjectActionNodeD2Ev:
	pushl $0
	movl 8(%esp), %eax
	pushl %eax
	mov $0x081d46bc, %eax
	call *%eax
	addl $8, %esp
	ret
	.align 2
.globl _ZN20CNWSObjectActionNodeD1Ev
	.type _ZN20CNWSObjectActionNodeD1Ev, @function
_ZN20CNWSObjectActionNodeD1Ev:
	pushl $0
	movl 8(%esp), %eax
	pushl %eax
	mov $0x081d46bc, %eax
	call *%eax
	addl $8, %esp
	ret
	.align 2
.globl _ZN20CNWSObjectActionNodeC2Ev
	.type _ZN20CNWSObjectActionNodeC2Ev, @function
_ZN20CNWSObjectActionNodeC2Ev:
	mov $0x081d468c, %eax
	jmp *%eax
	.align 2
.globl _ZN20CNWSObjectActionNodeC1Ev
	.type _ZN20CNWSObjectActionNodeC1Ev, @function
_ZN20CNWSObjectActionNodeC1Ev:
	mov $0x081d468c, %eax
	jmp *%eax
	.align 2
.globl _ZN20CNetLayerSessionInfoD2Ev
	.type _ZN20CNetLayerSessionInfoD2Ev, @function
_ZN20CNetLayerSessionInfoD2Ev:
	pushl $0
	movl 8(%esp), %eax
	pushl %eax
	mov $0x0829f818, %eax
	call *%eax
	addl $8, %esp
	ret
	.align 2
.globl _ZN20CNetLayerSessionInfoD1Ev
	.type _ZN20CNetLayerSessionInfoD1Ev, @function
_ZN20CNetLayerSessionInfoD1Ev:
	pushl $0
	movl 8(%esp), %eax
	pushl %eax
	mov $0x0829f818, %eax
	call *%eax
	addl $8, %esp
	ret
	.align 2
.globl _ZN20CNetLayerSessionInfoC2Ev
	.type _ZN20CNetLayerSessionInfoC2Ev, @function
_ZN20CNetLayerSessionInfoC2Ev:
	mov $0x0829f608, %eax
	jmp *%eax
	.align 2
.globl _ZN20CNetLayerSessionInfoC1Ev
	.type _ZN20CNetLayerSessionInfoC1Ev, @function
_ZN20CNetLayerSessionInfoC1Ev:
	mov $0x0829f608, %eax
	jmp *%eax
	.align 2
.globl _ZN25CGameEffectApplierRemoverD2Ev
	.type _ZN25CGameEffectApplierRemoverD2Ev, @function
_ZN25CGameEffectApplierRemoverD2Ev:
	pushl $0
	movl 8(%esp), %eax
	pushl %eax
	mov $0x0817dc4c, %eax
	call *%eax
	addl $8, %esp
	ret
	.align 2
.globl _ZN25CGameEffectApplierRemoverD1Ev
	.type _ZN25CGameEffectApplierRemoverD1Ev, @function
_ZN25CGameEffectApplierRemoverD1Ev:
	pushl $0
	movl 8(%esp), %eax
	pushl %eax
	mov $0x0817dc4c, %eax
	call *%eax
	addl $8, %esp
	ret
	.align 2
.globl _ZN26CNWTileSurfaceMeshAABBNodeD2Ev
	.type _ZN26CNWTileSurfaceMeshAABBNodeD2Ev, @function
_ZN26CNWTileSurfaceMeshAABBNodeD2Ev:
	pushl $0
	movl 8(%esp), %eax
	pushl %eax
	mov $0x08094080, %eax
	call *%eax
	addl $8, %esp
	ret
	.align 2
.globl _ZN26CNWTileSurfaceMeshAABBNodeD1Ev
	.type _ZN26CNWTileSurfaceMeshAABBNodeD1Ev, @function
_ZN26CNWTileSurfaceMeshAABBNodeD1Ev:
	pushl $0
	movl 8(%esp), %eax
	pushl %eax
	mov $0x08094080, %eax
	call *%eax
	addl $8, %esp
	ret
	.align 2
.globl _ZN27CItemPropertyApplierRemoverD2Ev
	.type _ZN27CItemPropertyApplierRemoverD2Ev, @function
_ZN27CItemPropertyApplierRemoverD2Ev:
	pushl $0
	movl 8(%esp), %eax
	pushl %eax
	mov $0x081b0c30, %eax
	call *%eax
	addl $8, %esp
	ret
	.align 2
.globl _ZN27CItemPropertyApplierRemoverD1Ev
	.type _ZN27CItemPropertyApplierRemoverD1Ev, @function
_ZN27CItemPropertyApplierRemoverD1Ev:
	pushl $0
	movl 8(%esp), %eax
	pushl %eax
	mov $0x081b0c30, %eax
	call *%eax
	addl $8, %esp
	ret
	.align 2
.globl _ZN29CVirtualMachineCmdImplementerD2Ev
	.type _ZN29CVirtualMachineCmdImplementerD2Ev, @function
_ZN29CVirtualMachineCmdImplementerD2Ev:
	pushl $0
	movl 8(%esp), %eax
	pushl %eax
	mov $0x08236d84, %eax
	call *%eax
	addl $8, %esp
	ret
	.align 2
.globl _ZN29CVirtualMachineCmdImplementerD1Ev
	.type _ZN29CVirtualMachineCmdImplementerD1Ev, @function
_ZN29CVirtualMachineCmdImplementerD1Ev:
	pushl $0
	movl 8(%esp), %eax
	pushl %eax
	mov $0x08236d84, %eax
	call *%eax
	addl $8, %esp
	ret
	.align 2
.globl _ZN7CResARED2Ev
	.type _ZN7CResARED2Ev, @function
_ZN7CResARED2Ev:
	pushl $0
	movl 8(%esp), %eax
	pushl %eax
	mov $0x080d54ec, %eax
	call *%eax
	addl $8, %esp
	ret
	.align 2
.globl _ZN7CResARED1Ev
	.type _ZN7CResARED1Ev, @function
_ZN7CResARED1Ev:
	pushl $0
	movl 8(%esp), %eax
	pushl %eax
	mov $0x080d54ec, %eax
	call *%eax
	addl $8, %esp
	ret
	.align 2
.globl _ZN7CResIFOD2Ev
	.type _ZN7CResIFOD2Ev, @function
_ZN7CResIFOD2Ev:
	pushl $0
	movl 8(%esp), %eax
	pushl %eax
	mov $0x081c1774, %eax
	call *%eax
	addl $8, %esp
	ret
	.align 2
.globl _ZN7CResIFOD1Ev
	.type _ZN7CResIFOD1Ev, @function
_ZN7CResIFOD1Ev:
	pushl $0
	movl 8(%esp), %eax
	pushl %eax
	mov $0x081c1774, %eax
	call *%eax
	addl $8, %esp
	ret
	.align 2
.globl _ZN9CNWSRulesD2Ev
	.type _ZN9CNWSRulesD2Ev, @function
_ZN9CNWSRulesD2Ev:
	pushl $0
	movl 8(%esp), %eax
	pushl %eax
	mov $0x081e4b80, %eax
	call *%eax
	addl $8, %esp
	ret
	.align 2
.globl _ZN9CNWSRulesD1Ev
	.type _ZN9CNWSRulesD1Ev, @function
_ZN9CNWSRulesD1Ev:
	pushl $0
	movl 8(%esp), %eax
	pushl %eax
	mov $0x081e4b80, %eax
	call *%eax
	addl $8, %esp
	ret
	.align 2
.globl _ZN9CNWSRulesC2Ev
	.type _ZN9CNWSRulesC2Ev, @function
_ZN9CNWSRulesC2Ev:
	mov $0x081e4b5c, %eax
	jmp *%eax
	.align 2
.globl _ZN9CNWSRulesC1Ev
	.type _ZN9CNWSRulesC1Ev, @function
_ZN9CNWSRulesC1Ev:
	mov $0x081e4b5c, %eax
	jmp *%eax
	.align 2
.globl _ZN14CStoreCustomerC2Ev
	.type _ZN14CStoreCustomerC2Ev, @function
_ZN14CStoreCustomerC2Ev:
	mov $0x08085ad4, %eax
	jmp *%eax
	.align 2
.globl _ZN14CStoreCustomerC1Ev
	.type _ZN14CStoreCustomerC1Ev, @function
_ZN14CStoreCustomerC1Ev:
	mov $0x08085ad4, %eax
	jmp *%eax
	.align 2
.globl _ZN15CNWSStats_SpellC2Ev
	.type _ZN15CNWSStats_SpellC2Ev, @function
_ZN15CNWSStats_SpellC2Ev:
	mov $0x08163be4, %eax
	jmp *%eax
	.align 2
.globl _ZN15CNWSStats_SpellC1Ev
	.type _ZN15CNWSStats_SpellC1Ev, @function
_ZN15CNWSStats_SpellC1Ev:
	mov $0x08163be4, %eax
	jmp *%eax
	.align 2
.globl _ZN16MS_RSAPrivateKeyC2Ev
	.type _ZN16MS_RSAPrivateKeyC2Ev, @function
_ZN16MS_RSAPrivateKeyC2Ev:
	mov $0x08299a70, %eax
	jmp *%eax
	.align 2
.globl _ZN16MS_RSAPrivateKeyC1Ev
	.type _ZN16MS_RSAPrivateKeyC1Ev, @function
_ZN16MS_RSAPrivateKeyC1Ev:
	mov $0x08299a70, %eax
	jmp *%eax
	.align 2
.globl _ZN17MS_RSAVLong_valueC2Ev
	.type _ZN17MS_RSAVLong_valueC2Ev, @function
_ZN17MS_RSAVLong_valueC2Ev:
	mov $0x0829d5ac, %eax
	jmp *%eax
	.align 2
.globl _ZN17MS_RSAVLong_valueC1Ev
	.type _ZN17MS_RSAVLong_valueC1Ev, @function
_ZN17MS_RSAVLong_valueC1Ev:
	mov $0x0829d5ac, %eax
	jmp *%eax
	.align 2
.globl _ZN22CCombatInformationNodeC2Ev
	.type _ZN22CCombatInformationNodeC2Ev, @function
_ZN22CCombatInformationNodeC2Ev:
	mov $0x080cb51c, %eax
	jmp *%eax
	.align 2
.globl _ZN22CCombatInformationNodeC1Ev
	.type _ZN22CCombatInformationNodeC1Ev, @function
_ZN22CCombatInformationNodeC1Ev:
	mov $0x080cb51c, %eax
	jmp *%eax
	.align 2
.globl _ZN26CNWSStats_SpellLikeAbilityC2Ev
	.type _ZN26CNWSStats_SpellLikeAbilityC2Ev, @function
_ZN26CNWSStats_SpellLikeAbilityC2Ev:
	mov $0x08163c04, %eax
	jmp *%eax
	.align 2
.globl _ZN26CNWSStats_SpellLikeAbilityC1Ev
	.type _ZN26CNWSStats_SpellLikeAbilityC1Ev, @function
_ZN26CNWSStats_SpellLikeAbilityC1Ev:
	mov $0x08163c04, %eax
	jmp *%eax
	.align 2
.globl _ZN32CPathfindInfoIntraTileSuccessorsC2Ev
	.type _ZN32CPathfindInfoIntraTileSuccessorsC2Ev, @function
_ZN32CPathfindInfoIntraTileSuccessorsC2Ev:
	mov $0x08242344, %eax
	jmp *%eax
	.align 2
.globl _ZN32CPathfindInfoIntraTileSuccessorsC1Ev
	.type _ZN32CPathfindInfoIntraTileSuccessorsC1Ev, @function
_ZN32CPathfindInfoIntraTileSuccessorsC1Ev:
	mov $0x08242344, %eax
	jmp *%eax
